
final_app.elf:     file format elf32-littlenios2
final_app.elf
architecture: nios2:r1, flags 0x00000112:
EXEC_P, HAS_SYMS, D_PAGED
start address 0x0000023c

Program Header:
    LOAD off    0x00001000 vaddr 0x00000000 paddr 0x00000000 align 2**12
         filesz 0x00000020 memsz 0x00000020 flags r-x
    LOAD off    0x00001020 vaddr 0x00000020 paddr 0x00000020 align 2**12
         filesz 0x00018178 memsz 0x00018178 flags r-x
    LOAD off    0x00019198 vaddr 0x00018198 paddr 0x0001a4f0 align 2**12
         filesz 0x00002358 memsz 0x00002358 flags rw-
    LOAD off    0x0001b848 vaddr 0x0001c848 paddr 0x0001c848 align 2**12
         filesz 0x00000000 memsz 0x00000180 flags rw-

Sections:
Idx Name          Size      VMA       LMA       File off  Algn
  0 .entry        00000020  00000000  00000000  00001000  2**5
                  CONTENTS, ALLOC, LOAD, READONLY, CODE
  1 .exceptions   0000021c  00000020  00000020  00001020  2**2
                  CONTENTS, ALLOC, LOAD, READONLY, CODE
  2 .text         0001714c  0000023c  0000023c  0000123c  2**2
                  CONTENTS, ALLOC, LOAD, READONLY, CODE
  3 .rodata       00000e10  00017388  00017388  00018388  2**2
                  CONTENTS, ALLOC, LOAD, READONLY, DATA
  4 .rwdata       00002358  00018198  0001a4f0  00019198  2**2
                  CONTENTS, ALLOC, LOAD, DATA, SMALL_DATA
  5 .bss          00000180  0001c848  0001c848  0001b848  2**2
                  ALLOC, SMALL_DATA
  6 .SDRAM        00000000  0001c9c8  0001c9c8  0001b4f0  2**0
                  CONTENTS
  7 .comment      00000023  00000000  00000000  0001b4f0  2**0
                  CONTENTS, READONLY
  8 .debug_aranges 00001288  00000000  00000000  0001b518  2**3
                  CONTENTS, READONLY, DEBUGGING
  9 .debug_info   0002ad0d  00000000  00000000  0001c7a0  2**0
                  CONTENTS, READONLY, DEBUGGING
 10 .debug_abbrev 0000b2d9  00000000  00000000  000474ad  2**0
                  CONTENTS, READONLY, DEBUGGING
 11 .debug_line   0000e524  00000000  00000000  00052786  2**0
                  CONTENTS, READONLY, DEBUGGING
 12 .debug_frame  00002eb8  00000000  00000000  00060cac  2**2
                  CONTENTS, READONLY, DEBUGGING
 13 .debug_str    0000491d  00000000  00000000  00063b64  2**0
                  CONTENTS, READONLY, DEBUGGING
 14 .debug_loc    0001b535  00000000  00000000  00068481  2**0
                  CONTENTS, READONLY, DEBUGGING
 15 .debug_alt_sim_info 00000040  00000000  00000000  000839b8  2**2
                  CONTENTS, READONLY, DEBUGGING
 16 .debug_ranges 00001af8  00000000  00000000  000839f8  2**3
                  CONTENTS, READONLY, DEBUGGING
 17 .thread_model 00000003  00000000  00000000  00089362  2**0
                  CONTENTS, READONLY
 18 .cpu          00000005  00000000  00000000  00089365  2**0
                  CONTENTS, READONLY
 19 .qsys         00000001  00000000  00000000  0008936a  2**0
                  CONTENTS, READONLY
 20 .simulation_enabled 00000001  00000000  00000000  0008936b  2**0
                  CONTENTS, READONLY
 21 .stderr_dev   0000000b  00000000  00000000  0008936c  2**0
                  CONTENTS, READONLY
 22 .stdin_dev    00000004  00000000  00000000  00089377  2**0
                  CONTENTS, READONLY
 23 .stdout_dev   0000000b  00000000  00000000  0008937b  2**0
                  CONTENTS, READONLY
 24 .sopc_system_name 00000009  00000000  00000000  00089386  2**0
                  CONTENTS, READONLY
 25 .quartus_project_dir 00000028  00000000  00000000  0008938f  2**0
                  CONTENTS, READONLY
 26 .jdi          00004e59  00000000  00000000  000893b7  2**0
                  CONTENTS, READONLY
 27 .sopcinfo     000a99e1  00000000  00000000  0008e210  2**0
                  CONTENTS, READONLY
SYMBOL TABLE:
00000000 l    d  .entry	00000000 .entry
00000020 l    d  .exceptions	00000000 .exceptions
0000023c l    d  .text	00000000 .text
00017388 l    d  .rodata	00000000 .rodata
00018198 l    d  .rwdata	00000000 .rwdata
0001c848 l    d  .bss	00000000 .bss
0001c9c8 l    d  .SDRAM	00000000 .SDRAM
00000000 l    d  .comment	00000000 .comment
00000000 l    d  .debug_aranges	00000000 .debug_aranges
00000000 l    d  .debug_info	00000000 .debug_info
00000000 l    d  .debug_abbrev	00000000 .debug_abbrev
00000000 l    d  .debug_line	00000000 .debug_line
00000000 l    d  .debug_frame	00000000 .debug_frame
00000000 l    d  .debug_str	00000000 .debug_str
00000000 l    d  .debug_loc	00000000 .debug_loc
00000000 l    d  .debug_alt_sim_info	00000000 .debug_alt_sim_info
00000000 l    d  .debug_ranges	00000000 .debug_ranges
00000000 l    df *ABS*	00000000 ../final_app_bsp//obj/HAL/src/crt0.o
00000274 l       .text	00000000 alt_after_alt_main
00000000 l    df *ABS*	00000000 alt_irq_handler.c
00000000 l    df *ABS*	00000000 alt_instruction_exception_entry.c
00000000 l    df *ABS*	00000000 gpu.c
00000000 l    df *ABS*	00000000 io_handler.c
00000000 l    df *ABS*	00000000 keyboard.c
0001c848 l     O .bss	00000002 ctl_reg
0001c84a l     O .bss	00000002 no_device
00000000 l    df *ABS*	00000000 main.c
000017e8 l     F .text	00000068 alt_dma_txchan_send
00001850 l     F .text	00000068 alt_dma_rxchan_prepare
0001c864 l     O .bss	00000004 copy_done
000024f4 l     F .text	00000030 done
00000000 l    df *ABS*	00000000 usb.c
00000000 l    df *ABS*	00000000 s_cos.c
00000000 l    df *ABS*	00000000 s_sin.c
00000000 l    df *ABS*	00000000 e_rem_pio2.c
00017d00 l     O .rodata	00000108 two_over_pi
00017c80 l     O .rodata	00000080 npio2_hw
00000000 l    df *ABS*	00000000 k_cos.c
00000000 l    df *ABS*	00000000 k_rem_pio2.c
00017e48 l     O .rodata	00000010 init_jk
00017e08 l     O .rodata	00000040 PIo2
00000000 l    df *ABS*	00000000 k_sin.c
00000000 l    df *ABS*	00000000 s_fabs.c
00000000 l    df *ABS*	00000000 s_floor.c
00000000 l    df *ABS*	00000000 s_scalbn.c
00000000 l    df *ABS*	00000000 s_copysign.c
00000000 l    df *ABS*	00000000 lib2-divmod.c
00000000 l    df *ABS*	00000000 lib2-mul.c
00000000 l    df *ABS*	00000000 adddf3.c
00000000 l    df *ABS*	00000000 divdf3.c
00000000 l    df *ABS*	00000000 eqdf2.c
00000000 l    df *ABS*	00000000 gedf2.c
00000000 l    df *ABS*	00000000 muldf3.c
00000000 l    df *ABS*	00000000 subdf3.c
00000000 l    df *ABS*	00000000 fixdfsi.c
00000000 l    df *ABS*	00000000 floatsidf.c
00000000 l    df *ABS*	00000000 floatunsidf.c
00000000 l    df *ABS*	00000000 extendsfdf2.c
00000000 l    df *ABS*	00000000 truncdfsf2.c
00000000 l    df *ABS*	00000000 libgcc2.c
00000000 l    df *ABS*	00000000 libgcc2.c
00000000 l    df *ABS*	00000000 clock.c
00000000 l    df *ABS*	00000000 efgcvt.c
00000000 l    df *ABS*	00000000 impure.c
0001887c l     O .rwdata	00000424 impure_data
00000000 l    df *ABS*	00000000 malloc.c
00000000 l    df *ABS*	00000000 mallocr.c
00000000 l    df *ABS*	00000000 printf.c
00000000 l    df *ABS*	00000000 puts.c
00000000 l    df *ABS*	00000000 sbrkr.c
00000000 l    df *ABS*	00000000 strlen.c
00000000 l    df *ABS*	00000000 timesr.c
00000000 l    df *ABS*	00000000 vfprintf.c
00017fa2 l     O .rodata	00000010 zeroes.4404
0000b598 l     F .text	000000bc __sbprintf
00017fb2 l     O .rodata	00000010 blanks.4403
00000000 l    df *ABS*	00000000 wsetup.c
00000000 l    df *ABS*	00000000 dtoa.c
0000b7a8 l     F .text	00000228 quorem
00000000 l    df *ABS*	00000000 ecvtbuf.c
0000d058 l     F .text	000001e0 print_e
00000000 l    df *ABS*	00000000 fflush.c
00000000 l    df *ABS*	00000000 findfp.c
0000de38 l     F .text	00000008 __fp_unlock
0000de4c l     F .text	0000019c __sinit.part.1
0000dfe8 l     F .text	00000008 __fp_lock
00000000 l    df *ABS*	00000000 mallocr.c
00000000 l    df *ABS*	00000000 fvwrite.c
00000000 l    df *ABS*	00000000 fwalk.c
00000000 l    df *ABS*	00000000 int_errno.c
00000000 l    df *ABS*	00000000 locale.c
000190c8 l     O .rwdata	00000020 lc_ctype_charset
000190a8 l     O .rwdata	00000020 lc_message_charset
000190e8 l     O .rwdata	00000038 lconv
00000000 l    df *ABS*	00000000 makebuf.c
00000000 l    df *ABS*	00000000 memchr.c
00000000 l    df *ABS*	00000000 memcpy.c
00000000 l    df *ABS*	00000000 memmove.c
00000000 l    df *ABS*	00000000 memset.c
00000000 l    df *ABS*	00000000 mprec.c
00017fe0 l     O .rodata	0000000c p05.2768
00000000 l    df *ABS*	00000000 mallocr.c
00000000 l    df *ABS*	00000000 s_fpclassify.c
00000000 l    df *ABS*	00000000 stdio.c
00000000 l    df *ABS*	00000000 strcmp.c
00000000 l    df *ABS*	00000000 strcpy.c
00000000 l    df *ABS*	00000000 vfprintf.c
00010cec l     F .text	000000fc __sprint_r.part.0
00018104 l     O .rodata	00000010 zeroes.4349
00012328 l     F .text	000000bc __sbprintf
00018114 l     O .rodata	00000010 blanks.4348
00000000 l    df *ABS*	00000000 writer.c
00000000 l    df *ABS*	00000000 closer.c
00000000 l    df *ABS*	00000000 mallocr.c
00000000 l    df *ABS*	00000000 fclose.c
00000000 l    df *ABS*	00000000 fputwc.c
00000000 l    df *ABS*	00000000 fstatr.c
00000000 l    df *ABS*	00000000 isattyr.c
00000000 l    df *ABS*	00000000 lseekr.c
00000000 l    df *ABS*	00000000 readr.c
00000000 l    df *ABS*	00000000 wbuf.c
00000000 l    df *ABS*	00000000 wcrtomb.c
00000000 l    df *ABS*	00000000 wctomb_r.c
00000000 l    df *ABS*	00000000 libgcc2.c
00000000 l    df *ABS*	00000000 libgcc2.c
00000000 l    df *ABS*	00000000 ledf2.c
00000000 l    df *ABS*	00000000 alt_close.c
000139e4 l     F .text	0000003c alt_get_errno
00000000 l    df *ABS*	00000000 alt_dev.c
00013af8 l     F .text	0000002c alt_dev_null_write
00000000 l    df *ABS*	00000000 alt_dma_rxchan_open.c
00013b24 l     F .text	0000003c alt_get_errno
00000000 l    df *ABS*	00000000 alt_dma_txchan_open.c
00013bb4 l     F .text	0000003c alt_get_errno
00000000 l    df *ABS*	00000000 alt_errno.c
00000000 l    df *ABS*	00000000 alt_find_dev.c
00000000 l    df *ABS*	00000000 alt_fstat.c
00013cd4 l     F .text	0000003c alt_get_errno
00000000 l    df *ABS*	00000000 alt_isatty.c
00013dc8 l     F .text	0000003c alt_get_errno
00000000 l    df *ABS*	00000000 alt_load.c
00013eb0 l     F .text	00000068 alt_load_section
00000000 l    df *ABS*	00000000 alt_lseek.c
00013f9c l     F .text	0000003c alt_get_errno
00000000 l    df *ABS*	00000000 alt_main.c
00000000 l    df *ABS*	00000000 alt_malloc_lock.c
00000000 l    df *ABS*	00000000 alt_read.c
00014178 l     F .text	0000003c alt_get_errno
00000000 l    df *ABS*	00000000 alt_release_fd.c
00000000 l    df *ABS*	00000000 alt_sbrk.c
0001a4e4 l     O .rwdata	00000004 heap_end
00000000 l    df *ABS*	00000000 alt_times.c
000143ec l     F .text	0000003c alt_get_errno
00000000 l    df *ABS*	00000000 alt_usleep.c
00000000 l    df *ABS*	00000000 alt_write.c
000144d0 l     F .text	0000003c alt_get_errno
00000000 l    df *ABS*	00000000 alt_sys_init.c
0001460c l     F .text	00000034 alt_dev_reg
000192c8 l     O .rwdata	000000a4 copy_dma_priv
0001936c l     O .rwdata	0000001c copy_dma_tx
00019388 l     O .rwdata	0000001c copy_dma_rx
000193a4 l     O .rwdata	00001060 jtag_uart_0
0001a404 l     O .rwdata	00000054 pixel_dma
0001a458 l     O .rwdata	00000044 vga_resampler
00000000 l    df *ABS*	00000000 altera_avalon_dma.c
000149bc l     F .text	00000034 alt_dma_txchan_reg
000149f0 l     F .text	00000034 alt_dma_rxchan_reg
00014b1c l     F .text	0000009c alt_avalon_dma_launch_txonly
00014bb8 l     F .text	0000009c alt_avalon_dma_launch_rxonly
00014c54 l     F .text	00000344 alt_avalon_dma_ioctl
0001530c l     F .text	000001c0 alt_avalon_dma_irq
00000000 l    df *ABS*	00000000 altera_avalon_jtag_uart_fd.c
00000000 l    df *ABS*	00000000 altera_avalon_jtag_uart_init.c
000157a4 l     F .text	0000020c altera_avalon_jtag_uart_irq
000159b0 l     F .text	000000a0 altera_avalon_jtag_uart_timeout
00000000 l    df *ABS*	00000000 altera_avalon_jtag_uart_ioctl.c
00000000 l    df *ABS*	00000000 altera_avalon_jtag_uart_read.c
00000000 l    df *ABS*	00000000 altera_avalon_jtag_uart_write.c
00000000 l    df *ABS*	00000000 altera_avalon_timer_sc.c
00015fe8 l     F .text	00000078 alt_avalon_timer_sc_irq
00000000 l    df *ABS*	00000000 alt_alarm_start.c
00000000 l    df *ABS*	00000000 alt_busy_sleep.c
00000000 l    df *ABS*	00000000 alt_dcache_flush_all.c
00000000 l    df *ABS*	00000000 alt_dev_llist_insert.c
00016380 l     F .text	0000003c alt_get_errno
00000000 l    df *ABS*	00000000 alt_do_ctors.c
00000000 l    df *ABS*	00000000 alt_do_dtors.c
00000000 l    df *ABS*	00000000 alt_icache_flush_all.c
00000000 l    df *ABS*	00000000 alt_iic.c
00000000 l    df *ABS*	00000000 alt_iic_isr_register.c
00000000 l    df *ABS*	00000000 alt_io_redirect.c
000167e0 l     F .text	000000e4 alt_open_fd
00000000 l    df *ABS*	00000000 alt_irq_vars.c
00000000 l    df *ABS*	00000000 alt_open.c
00016940 l     F .text	0000003c alt_get_errno
0001697c l     F .text	000000ec alt_file_locked
00000000 l    df *ABS*	00000000 alt_tick.c
00000000 l    df *ABS*	00000000 altera_nios2_gen2_irq.c
00000000 l    df *ABS*	00000000 alt_find_file.c
00000000 l    df *ABS*	00000000 alt_get_fd.c
00000000 l    df *ABS*	00000000 atexit.c
00000000 l    df *ABS*	00000000 exit.c
00000000 l    df *ABS*	00000000 memcmp.c
00000000 l    df *ABS*	00000000 __atexit.c
00000000 l    df *ABS*	00000000 __call_atexit.c
00000000 l    df *ABS*	00000000 alt_exit.c
0001c89c g     O .bss	00000004 alt_instruction_exception_handler
000102f4 g     F .text	00000074 _mprec_log10
000103e0 g     F .text	0000008c __any_on
000128dc g     F .text	00000054 _isatty_r
00017fec g     O .rodata	00000028 __mprec_tinytens
000140b4 g     F .text	0000007c alt_main
00010c5c g     F .text	00000090 strcpy
000090d8 g     F .text	000000c0 _puts_r
0001c8c8 g     O .bss	00000100 alt_irq
00005618 g     F .text	00000014 fabs
00012930 g     F .text	00000060 _lseek_r
00002524 g     F .text	00000128 transfer
0001a4f0 g       *ABS*	00000000 __flash_rwdata_start
00006e28 g     F .text	00000088 .hidden __eqdf2
0001c9c8 g       *ABS*	00000000 __alt_heap_start
0001a4a0 g     O .rwdata	00000004 dma
0000909c g     F .text	0000003c printf
00012b48 g     F .text	0000009c _wcrtomb_r
0001a49c g     O .rwdata	00000004 gpu
0001c856 g     O .bss	00000002 usb_ctl_val
00010b1c g     F .text	0000005c __sseek
0000e198 g     F .text	00000010 __sinit
0000d238 g     F .text	000001a4 fcvtbuf
000154cc g     F .text	000000b4 alt_avalon_dma_init
0001c850 g     O .bss	00000004 keycode
000129f0 g     F .text	00000140 __swbuf_r
0000ec6c g     F .text	0000007c _setlocale_r
0000dff0 g     F .text	00000078 __sfmoreglue
00014154 g     F .text	00000024 __malloc_unlock
000036c0 g     F .text	00000088 UsbGetRetryCnt
000018b8 g     F .text	000003c0 draw_tree
0000f130 g     F .text	0000015c memmove
000007b8 g     F .text	000000b0 IO_init
0000e180 g     F .text	00000018 _cleanup
0000f3b4 g     F .text	000000a8 _Balloc
00000650 g     F .text	00000168 draw_char
00006eb0 g     F .text	000000dc .hidden __gtdf2
00016d68 g     F .text	00000024 altera_nios2_gen2_irq_init
00000000 g     F .entry	0000000c __reset
00014428 g     F .text	00000078 times
00000020 g       *ABS*	00000000 __flash_exceptions_start
00012880 g     F .text	0000005c _fstat_r
0001c874 g     O .bss	00000004 errno
0000562c g     F .text	000001ec floor
00010a98 g     F .text	00000008 __seofread
0001c888 g     O .bss	00000004 alt_argv
0002249c g       *ABS*	00000000 _gp
000144a0 g     F .text	00000030 usleep
00013bf0 g     F .text	00000054 alt_dma_txchan_open
00019148 g     O .rwdata	00000180 alt_fd_list
000039a4 g     F .text	0000076c __ieee754_rem_pio2
00013c44 g     F .text	00000090 alt_find_dev
0000efe8 g     F .text	00000148 memcpy
00009298 g     F .text	00000008 _times_r
0000de40 g     F .text	0000000c _cleanup_r
00008174 g     F .text	000000dc .hidden __floatsidf
000168c4 g     F .text	0000007c alt_io_redirect
0001c858 g     O .bss	00000001 data_size
000138f0 g     F .text	000000f4 .hidden __ltdf2
00017388 g       *ABS*	00000000 __DTOR_END__
00009198 g     F .text	00000014 puts
00016f58 g     F .text	0000009c alt_exception_cause_generated_bad_addr
000109d0 g     F .text	00000074 __fpclassifyd
00010250 g     F .text	000000a4 __ratio
0001230c g     F .text	0000001c __vfiprintf_internal
00015ba8 g     F .text	0000021c altera_avalon_jtag_uart_read
00008838 g     F .text	00000014 malloc
0000906c g     F .text	00000030 _printf_r
00005ac8 g     F .text	00000064 .hidden __udivsi3
00013e04 g     F .text	000000ac isatty
0001803c g     O .rodata	000000c8 __mprec_tens
0000ece8 g     F .text	0000000c __locale_charset
00004110 g     F .text	000004a4 __kernel_cos
000087f8 g     F .text	00000040 gcvtf
0001c870 g     O .bss	00000004 __malloc_top_pad
00002d4c g     F .text	00000268 UsbGetConfigDesc2
000002ec g     F .text	00000074 clear_depth
0001a4b4 g     O .rwdata	00000004 __mb_cur_max
0000ed18 g     F .text	0000000c _localeconv_r
0000f7e8 g     F .text	0000003c __i2b
0000e61c g     F .text	000004c8 __sfvwrite_r
0001c85a g     O .bss	00000002 intStat
000091ac g     F .text	00000054 _sbrk_r
00012990 g     F .text	00000060 _read_r
0001a4cc g     O .rwdata	00000004 alt_max_fd
00012574 g     F .text	000000f0 _fclose_r
0000de08 g     F .text	00000030 fflush
0001c86c g     O .bss	00000004 __malloc_max_sbrked_mem
0000534c g     F .text	000002cc __kernel_sin
000082f8 g     F .text	00000110 .hidden __extendsfdf2
00005bac g     F .text	000008ac .hidden __adddf3
00014a24 g     F .text	000000f8 alt_avalon_dma_launch_bidir
0000fff8 g     F .text	0000010c __b2d
0001332c g     F .text	000005c4 .hidden __umoddi3
00013b60 g     F .text	00000054 alt_dma_rxchan_open
00013fd8 g     F .text	000000dc lseek
0001a4a4 g     O .rwdata	00000004 _global_impure_ptr
0001046c g     F .text	00000564 _realloc_r
08000000 g       *ABS*	00000000 __alt_exception_stack_pointer
0001c9c8 g       *ABS*	00000000 __bss_end
000166f0 g     F .text	000000f0 alt_iic_isr_register
00016c60 g     F .text	00000108 alt_tick
00012d30 g     F .text	000005fc .hidden __udivdi3
000127dc g     F .text	00000024 _fputwc_r
00018014 g     O .rodata	00000028 __mprec_bigtens
0000f5cc g     F .text	00000104 __s2b
00008250 g     F .text	000000a8 .hidden __floatunsidf
0000fd38 g     F .text	00000060 __mcmp
0000279c g     F .text	00000100 UsbSetAddress
0000e1b8 g     F .text	00000018 __fp_lock_all
000166a4 g     F .text	0000004c alt_ic_irq_enabled
00016bc4 g     F .text	0000009c alt_alarm_stop
0001c890 g     O .bss	00000004 alt_irq_active
00000108 g     F .exceptions	000000d4 alt_irq_handler
00019120 g     O .rwdata	00000028 alt_dev_null
000045b4 g     F .text	00000d98 __kernel_rem_pio2
00016360 g     F .text	00000020 alt_dcache_flush_all
0000f6d0 g     F .text	00000068 __hi0bits
000008f0 g     F .text	00000080 IO_read
000080f4 g     F .text	00000080 .hidden __fixdfsi
0001a4f0 g       *ABS*	00000000 __ram_rwdata_end
0001a4c4 g     O .rwdata	00000008 alt_dev_list
00015160 g     F .text	00000074 alt_avalon_dma_space
0001450c g     F .text	00000100 write
00018198 g       *ABS*	00000000 __ram_rodata_end
00013d10 g     F .text	000000b8 fstat
00000000 g       *ABS*	00000000 __alt_mem_SDRAM
000138f0 g     F .text	000000f4 .hidden __ledf2
00003748 g     F .text	00000080 UsbPrintMem
0000fab0 g     F .text	00000140 __pow5mult
00010e00 g     F .text	0000150c ___vfiprintf_internal_r
0001c880 g     O .bss	00000004 __nlocale_changed
00005b2c g     F .text	00000058 .hidden __umodsi3
0001c9c8 g       *ABS*	00000000 end
00000360 g     F .text	000000c4 draw_cube
000156e4 g     F .text	000000c0 altera_avalon_jtag_uart_init
000001dc g     F .exceptions	00000060 alt_instruction_exception_entry
00017388 g       *ABS*	00000000 __CTOR_LIST__
07fffc00 g       *ABS*	00000000 __alt_stack_pointer
0000d880 g     F .text	00000310 _dcvt
00016060 g     F .text	0000007c alt_avalon_timer_sc_init
000085b0 g     F .text	00000064 .hidden __clzsi2
00015dc4 g     F .text	00000224 altera_avalon_jtag_uart_write
000037c8 g     F .text	000000ec cos
0000e1a8 g     F .text	00000004 __sfp_lock_acquire
0000ef04 g     F .text	000000e4 memchr
000092a0 g     F .text	000022dc ___vfprintf_internal_r
000030b4 g     F .text	00000100 UsbClassRequest
0000e30c g     F .text	00000310 _free_r
0000ecf4 g     F .text	00000010 __locale_mb_cur_max
000151d4 g     F .text	00000138 alt_avalon_dma_send
000171d4 g     F .text	00000180 __call_exitprocs
0001a4d8 g     O .rwdata	00000008 alt_dma_txchan_list
0001c87c g     O .bss	00000004 __mlocale_changed
0001a4ac g     O .rwdata	00000004 __malloc_sbrk_base
0000023c g     F .text	0000003c _start
0001c894 g     O .bss	00000004 _alt_tick_rate
00000424 g     F .text	0000022c draw_string
000038b4 g     F .text	000000f0 sin
0000d51c g     F .text	00000364 _gcvt
0000fbf0 g     F .text	00000148 __lshift
0001c898 g     O .bss	00000004 _alt_nticks
000141b4 g     F .text	00000104 read
00014678 g     F .text	00000344 alt_sys_init
000170bc g     F .text	00000118 __register_exitproc
0000f824 g     F .text	0000028c __multiply
00015a50 g     F .text	00000068 altera_avalon_jtag_uart_close
00005b84 g     F .text	00000028 .hidden __mulsi3
00018198 g       *ABS*	00000000 __ram_rwdata_start
00017388 g       *ABS*	00000000 __ram_rodata_start
0001c8a0 g     O .bss	00000028 __malloc_current_mallinfo
00010104 g     F .text	0000014c __d2b
0000289c g     F .text	00000148 UsbGetDeviceDesc1
00015580 g     F .text	00000060 altera_avalon_jtag_uart_read_fd
00016e94 g     F .text	000000c4 alt_get_fd
00016208 g     F .text	00000158 alt_busy_sleep
00018198 g     O .rwdata	000006e4 font_data
00012444 g     F .text	00000054 _close_r
00017040 g     F .text	0000007c memcmp
00015640 g     F .text	00000050 altera_avalon_jtag_uart_close_fd
0001c9c8 g       *ABS*	00000000 __alt_stack_base
00015690 g     F .text	00000054 altera_avalon_jtag_uart_ioctl_fd
0000b654 g     F .text	00000154 __swsetup_r
00006458 g     F .text	000009d0 .hidden __divdf3
0000e068 g     F .text	00000118 __sfp
00010368 g     F .text	00000078 __copybits
00018ca0 g     O .rwdata	00000408 __malloc_av_
0000e1b4 g     F .text	00000004 __sinit_lock_release
00006f8c g     F .text	0000086c .hidden __muldf3
00010a44 g     F .text	00000054 __sread
0000363c g     F .text	00000084 UsbWaitTDListDone
00016d8c g     F .text	00000108 alt_find_file
000163bc g     F .text	000000a4 alt_dev_llist_insert
00014130 g     F .text	00000024 __malloc_lock
0001433c g     F .text	000000b0 sbrk
0000ddac g     F .text	0000005c _fflush_r
00012498 g     F .text	000000dc _calloc_r
0001c85c g     O .bss	00000001 hot_plug_count
0001c848 g       *ABS*	00000000 __bss_start
0000f28c g     F .text	00000128 memset
00001c78 g     F .text	0000087c main
00008660 g     F .text	00000024 fcvt
00014fe0 g     F .text	00000048 alt_avalon_dma_rx_ioctl
0001c88c g     O .bss	00000004 alt_envp
0001c868 g     O .bss	00000004 __malloc_max_total_mem
000155e0 g     F .text	00000060 altera_avalon_jtag_uart_write_fd
00002fb4 g     F .text	00000100 UsbSetConfig
00012b30 g     F .text	00000018 __swbuf
0000d3dc g     F .text	00000140 ecvtbuf
00010b78 g     F .text	00000008 __sclose
07fffc00 g       *ABS*	00000000 __alt_heap_limit
00012664 g     F .text	00000014 fclose
00008408 g     F .text	000001a8 .hidden __truncdfsf2
0000b9d0 g     F .text	00001688 _dtoa_r
00008860 g     F .text	0000080c _malloc_r
00012ca4 g     F .text	00000030 __ascii_wctomb
0001a4e0 g     O .rwdata	00000004 alt_errno
00008700 g     F .text	00000058 ecvtf
0000eae4 g     F .text	000000c4 _fwalk
000059d0 g     F .text	00000084 .hidden __divsi3
0000e1e8 g     F .text	00000124 _malloc_trim_r
000031b4 g     F .text	00000148 UsbGetHidDesc
00017388 g       *ABS*	00000000 __CTOR_END__
00010b80 g     F .text	000000dc strcmp
00017388 g       *ABS*	00000000 __flash_rodata_start
00017388 g       *ABS*	00000000 __DTOR_LIST__
000059b4 g     F .text	0000001c copysign
00006e28 g     F .text	00000088 .hidden __nedf2
000026a4 g     F .text	00000044 UsbRead
00000970 g     F .text	00000300 loop_keyboard
00014640 g     F .text	00000038 alt_irq_init
000142b8 g     F .text	00000084 alt_release_fd
00017e58 g     O .rodata	00000100 .hidden __clz_tab
0001c878 g     O .bss	00000004 _PathLocale
00016ff4 g     F .text	00000014 atexit
000123e4 g     F .text	00000060 _write_r
0000ed24 g     F .text	00000018 setlocale
0001a4a8 g     O .rwdata	00000004 _impure_ptr
0001c884 g     O .bss	00000004 alt_argc
0000db90 g     F .text	0000021c __sflush_r
00005818 g     F .text	0000019c scalbn
000164c0 g     F .text	00000060 _do_dtors
0000ed10 g     F .text	00000008 __locale_cjk_lang
00000020 g       .exceptions	00000000 alt_irq_entry
0000ff94 g     F .text	00000064 __ulp
0000e1d0 g     F .text	00000018 __fp_unlock_all
0001c854 g     O .bss	00000001 toggle
000086dc g     F .text	00000024 ecvt
0001a4bc g     O .rwdata	00000008 alt_fs_list
0001c860 g     O .bss	00000004 offset
000032fc g     F .text	00000340 UsbGetReportDesc
00000020 g       *ABS*	00000000 __ram_exceptions_start
0000ed3c g     F .text	0000000c localeconv
00016540 g     F .text	00000050 alt_ic_isr_register
0001a4f0 g       *ABS*	00000000 _edata
0001c9c8 g       *ABS*	00000000 _end
0000264c g     F .text	00000058 UsbWrite
00012678 g     F .text	00000164 __fputwc
0000023c g       *ABS*	00000000 __ram_exceptions_end
00015ab8 g     F .text	000000f0 altera_avalon_jtag_uart_ioctl
0001c85e g     O .bss	00000002 code
00016618 g     F .text	0000008c alt_ic_irq_disable
00010aa0 g     F .text	0000007c __swrite
0001a4b0 g     O .rwdata	00000004 __malloc_trim_threshold
00008684 g     F .text	00000058 fcvtf
0000ed04 g     F .text	0000000c __locale_msgcharset
0001c84c g     O .bss	00000002 fs_device
00017008 g     F .text	00000038 exit
0000eba8 g     F .text	000000c4 _fwalk_reent
0000fd98 g     F .text	000001fc __mdiff
00005a54 g     F .text	00000074 .hidden __modsi3
07fffc00 g       *ABS*	00000000 __alt_data_end
00000020 g     F .exceptions	00000000 alt_exception
0000e1ac g     F .text	00000004 __sfp_lock_release
00008758 g     F .text	000000a0 gcvt
00000868 g     F .text	00000088 IO_write
00017354 g     F .text	00000034 _exit
000160dc g     F .text	0000012c alt_alarm_start
0000ed48 g     F .text	000001bc __smakebuf_r
00009200 g     F .text	00000098 strlen
00016a68 g     F .text	0000015c open
00006eb0 g     F .text	000000dc .hidden __gedf2
00008614 g     F .text	0000004c clock
0001a4b8 g     O .rwdata	00000004 __wctomb
00010de8 g     F .text	00000018 __sprint_r
00016520 g     F .text	00000020 alt_icache_flush_all
00016590 g     F .text	00000088 alt_ic_irq_enable
0000b57c g     F .text	0000001c __vfprintf_internal
00012cd4 g     F .text	0000005c _wctomb_r
00015028 g     F .text	00000138 alt_avalon_dma_prepare
00000278 g     F .text	00000074 clear_screen
000077f8 g     F .text	000008fc .hidden __subdf3
00000c70 g     F .text	00000b78 init_keyboard
0001a4d0 g     O .rwdata	00000008 alt_dma_rxchan_list
0000f738 g     F .text	000000b0 __lo0bits
00002bbc g     F .text	00000190 UsbGetConfigDesc1
0001a4e8 g     O .rwdata	00000008 alt_alarm_list
00016460 g     F .text	00000060 _do_ctors
000026e8 g     F .text	000000b4 UsbSoftReset
00012be4 g     F .text	000000c0 wcrtomb
00013a20 g     F .text	000000d8 close
000029e4 g     F .text	000001d8 UsbGetDeviceDesc2
00013f18 g     F .text	00000084 alt_load
00014f98 g     F .text	00000048 alt_avalon_dma_tx_ioctl
00012800 g     F .text	00000080 fputwc
0000884c g     F .text	00000014 free
0000e1b0 g     F .text	00000004 __sinit_lock_acquire
0000f484 g     F .text	00000148 __multadd
0000f45c g     F .text	00000028 _Bfree



Disassembly of section .entry:

00000000 <__reset>:
 * Jump to the _start entry point in the .text section if reset code
 * is allowed or if optimizing for RTL simulation.
 */
#if defined(ALT_ALLOW_CODE_AT_RESET) || defined(ALT_SIM_OPTIMIZE)
    /* Jump to the _start entry point in the .text section. */
    movhi r1, %hi(_start)
   0:	00400034 	movhi	at,0
    ori r1, r1, %lo(_start)
   4:	08408f14 	ori	at,at,572
    jmp r1
   8:	0800683a 	jmp	at
	...

Disassembly of section .exceptions:

00000020 <alt_exception>:

        /* 
         * Switch to the exception stack and save the current stack pointer
         * in memory. Uses the et register as a scratch register.
         */
        movhi et, %hi(__alt_exception_stack_pointer - 80)
  20:	0601fff4 	movhi	et,2047
        ori   et, et, %lo(__alt_exception_stack_pointer - 80) 
  24:	c63fec14 	ori	et,et,65456
        stw   sp, 76(et)
  28:	c6c01315 	stw	sp,76(et)
        mov   sp, et
  2c:	c037883a 	mov	sp,et
         * documentation for details).
         *
         * Leave a gap in the stack frame at 4(sp) for the muldiv handler to
         * store zero into.
         */
        stw   ra,  0(sp)
  30:	dfc00015 	stw	ra,0(sp)
        stw   r1,   8(sp)
  34:	d8400215 	stw	at,8(sp)
        stw   r2,  12(sp)
  38:	d8800315 	stw	r2,12(sp)
        stw   r3,  16(sp)
  3c:	d8c00415 	stw	r3,16(sp)
        stw   r4,  20(sp)
  40:	d9000515 	stw	r4,20(sp)
        stw   r5,  24(sp)
  44:	d9400615 	stw	r5,24(sp)
        stw   r6,  28(sp)
  48:	d9800715 	stw	r6,28(sp)
        stw   r7,  32(sp)
  4c:	d9c00815 	stw	r7,32(sp)
        rdctl r5, estatus   /* Read early to avoid usage stall */
  50:	000b307a 	rdctl	r5,estatus
        stw   r8,  36(sp)
  54:	da000915 	stw	r8,36(sp)
        stw   r9,  40(sp)
  58:	da400a15 	stw	r9,40(sp)
        stw   r10, 44(sp)
  5c:	da800b15 	stw	r10,44(sp)
        stw   r11, 48(sp)
  60:	dac00c15 	stw	r11,48(sp)
        stw   r12, 52(sp)
  64:	db000d15 	stw	r12,52(sp)
        stw   r13, 56(sp)
  68:	db400e15 	stw	r13,56(sp)
        stw   r14, 60(sp)
  6c:	db800f15 	stw	r14,60(sp)
        stw   r15, 64(sp)
  70:	dbc01015 	stw	r15,64(sp)
        /*
         * ea-4 contains the address of the instruction being executed
         * when the exception occured. For interrupt exceptions, we will
         * will be re-issue the isntruction. Store it in 72(sp)
         */
        stw   r5,  68(sp)  /* estatus */
  74:	d9401115 	stw	r5,68(sp)
        addi  r15, ea, -4  /* instruction that caused exception */
  78:	ebffff04 	addi	r15,ea,-4
        stw   r15,  72(sp)
  7c:	dbc01215 	stw	r15,72(sp)
#else
        /*
         * Test to see if the exception was a software exception or caused 
         * by an external interrupt, and vector accordingly.
         */
        rdctl r4, ipending
  80:	0009313a 	rdctl	r4,ipending
        andi  r2, r5, 1
  84:	2880004c 	andi	r2,r5,1
        beq   r2, zero, .Lnot_irq
  88:	10000326 	beq	r2,zero,98 <alt_exception+0x78>
        beq   r4, zero, .Lnot_irq
  8c:	20000226 	beq	r4,zero,98 <alt_exception+0x78>
        /*
         * Now that all necessary registers have been preserved, call 
         * alt_irq_handler() to process the interrupts.
         */

        call alt_irq_handler
  90:	00001080 	call	108 <alt_irq_handler>

        .section .exceptions.irqreturn, "xa"

        br    .Lexception_exit
  94:	00000706 	br	b4 <alt_exception+0x94>
         * upon completion, so we write ea (address of instruction *after*
         * the one where the exception occured) into 72(sp). The actual
         * instruction that caused the exception is written in r2, which these
         * handlers will utilize.
         */
        stw ea, 72(sp) /* EA is PC+4 so will skip over instruction causing exception */
  98:	df401215 	stw	ea,72(sp)
.Lunknown_16bit:
        addi.n r4, r4, 2 /* Need PC+2 to skip over instruction causing exception */
        stw r4, 72(sp)

#else /* CDX is not Enabled and all instructions are 32bits */
        ldw r2, -4(ea) /* Instruction value that caused exception */
  9c:	e8bfff17 	ldw	r2,-4(ea)
         * debugger is present) or go into an infinite loop since the
         * handling behavior is undefined; in that case we will not return here.
         */

        /* Load exception-causing address as first argument (r4) */
        addi   r4, ea, -4
  a0:	e93fff04 	addi	r4,ea,-4

        /* Call the instruction-exception entry */
        call   alt_instruction_exception_entry
  a4:	00001dc0 	call	1dc <alt_instruction_exception_entry>
         * instruction
         *
         * Return code was 0: Skip. The instruction after the exception is
         * already stored in 72(sp).
         */
        bne   r2, r0, .Lexception_exit
  a8:	1000021e 	bne	r2,zero,b4 <alt_exception+0x94>

        /*
         * Otherwise, modify 72(sp) to re-issue the instruction that caused the
         * exception.
         */
        addi  r15, ea, -4  /* instruction that caused exception */
  ac:	ebffff04 	addi	r15,ea,-4
        stw   r15,  72(sp)
  b0:	dbc01215 	stw	r15,72(sp)
        /* 
         * Restore the saved registers, so that all general purpose registers 
         * have been restored to their state at the time the interrupt occured.
         */

        ldw   r5,  68(sp)
  b4:	d9401117 	ldw	r5,68(sp)
        ldw   ea,  72(sp)  /* This becomes the PC once eret is executed */
  b8:	df401217 	ldw	ea,72(sp)
        ldw   ra,   0(sp)
  bc:	dfc00017 	ldw	ra,0(sp)

        wrctl estatus, r5
  c0:	2801707a 	wrctl	estatus,r5

        ldw   r1,   8(sp)
  c4:	d8400217 	ldw	at,8(sp)
        ldw   r2,  12(sp)
  c8:	d8800317 	ldw	r2,12(sp)
        ldw   r3,  16(sp)
  cc:	d8c00417 	ldw	r3,16(sp)
        ldw   r4,  20(sp)
  d0:	d9000517 	ldw	r4,20(sp)
        ldw   r5,  24(sp)
  d4:	d9400617 	ldw	r5,24(sp)
        ldw   r6,  28(sp)
  d8:	d9800717 	ldw	r6,28(sp)
        ldw   r7,  32(sp)
  dc:	d9c00817 	ldw	r7,32(sp)

#if defined(ALT_EXCEPTION_STACK) && defined(ALT_STACK_CHECK)
        ldw   et, %gprel(alt_exception_old_stack_limit)(gp)
#endif

        ldw   r8,  36(sp)
  e0:	da000917 	ldw	r8,36(sp)
        ldw   r9,  40(sp)
  e4:	da400a17 	ldw	r9,40(sp)
        ldw   r10, 44(sp)
  e8:	da800b17 	ldw	r10,44(sp)
        ldw   r11, 48(sp)
  ec:	dac00c17 	ldw	r11,48(sp)
        ldw   r12, 52(sp)
  f0:	db000d17 	ldw	r12,52(sp)
        ldw   r13, 56(sp)
  f4:	db400e17 	ldw	r13,56(sp)
        ldw   r14, 60(sp)
  f8:	db800f17 	ldw	r14,60(sp)
        ldw   r15, 64(sp)
  fc:	dbc01017 	ldw	r15,64(sp)
#ifdef ALT_EXCEPTION_STACK
#ifdef ALT_STACK_CHECK
        stw   et, %gprel(alt_stack_limit_value)(gp)
        stw   zero, %gprel(alt_exception_old_stack_limit)(gp)
#endif /* ALT_STACK_CHECK */
        ldw   sp,  76(sp)
 100:	dec01317 	ldw	sp,76(sp)

        /*
         * Return to the interrupted instruction.
         */

        eret
 104:	ef80083a 	eret

00000108 <alt_irq_handler>:
 * instruction is present if the macro ALT_CI_INTERRUPT_VECTOR defined.
 */

void alt_irq_handler (void) __attribute__ ((section (".exceptions")));
void alt_irq_handler (void)
{
 108:	defff904 	addi	sp,sp,-28
 10c:	dfc00615 	stw	ra,24(sp)
 110:	df000515 	stw	fp,20(sp)
 114:	df000504 	addi	fp,sp,20
  
  /*
   * Notify the operating system that we are at interrupt level.
   */ 
  
  ALT_OS_INT_ENTER();
 118:	0001883a 	nop
#ifndef NIOS2_EIC_PRESENT
static ALT_INLINE alt_u32 ALT_ALWAYS_INLINE alt_irq_pending (void)
{
  alt_u32 active;

  NIOS2_READ_IPENDING (active);
 11c:	0005313a 	rdctl	r2,ipending
 120:	e0bffe15 	stw	r2,-8(fp)

  return active;
 124:	e0bffe17 	ldw	r2,-8(fp)
   * Consider the case where the high priority interupt is asserted during
   * the interrupt entry sequence for a lower priority interrupt to see why
   * this is the case.
   */

  active = alt_irq_pending ();
 128:	e0bffb15 	stw	r2,-20(fp)

  do
  {
    i = 0;
 12c:	e03ffd15 	stw	zero,-12(fp)
    mask = 1;
 130:	00800044 	movi	r2,1
 134:	e0bffc15 	stw	r2,-16(fp)
     * called to clear the interrupt condition.
     */

    do
    {
      if (active & mask)
 138:	e0fffb17 	ldw	r3,-20(fp)
 13c:	e0bffc17 	ldw	r2,-16(fp)
 140:	1884703a 	and	r2,r3,r2
 144:	10001426 	beq	r2,zero,198 <alt_irq_handler+0x90>
      { 
#ifdef ALT_ENHANCED_INTERRUPT_API_PRESENT
        alt_irq[i].handler(alt_irq[i].context); 
 148:	008000b4 	movhi	r2,2
 14c:	10b23204 	addi	r2,r2,-14136
 150:	e0fffd17 	ldw	r3,-12(fp)
 154:	180690fa 	slli	r3,r3,3
 158:	10c5883a 	add	r2,r2,r3
 15c:	10c00017 	ldw	r3,0(r2)
 160:	008000b4 	movhi	r2,2
 164:	10b23204 	addi	r2,r2,-14136
 168:	e13ffd17 	ldw	r4,-12(fp)
 16c:	200890fa 	slli	r4,r4,3
 170:	1105883a 	add	r2,r2,r4
 174:	10800104 	addi	r2,r2,4
 178:	10800017 	ldw	r2,0(r2)
 17c:	1009883a 	mov	r4,r2
 180:	183ee83a 	callr	r3
#else
        alt_irq[i].handler(alt_irq[i].context, i); 
#endif
        break;
 184:	0001883a 	nop
#ifndef NIOS2_EIC_PRESENT
static ALT_INLINE alt_u32 ALT_ALWAYS_INLINE alt_irq_pending (void)
{
  alt_u32 active;

  NIOS2_READ_IPENDING (active);
 188:	0005313a 	rdctl	r2,ipending
 18c:	e0bfff15 	stw	r2,-4(fp)

  return active;
 190:	e0bfff17 	ldw	r2,-4(fp)
 194:	00000706 	br	1b4 <alt_irq_handler+0xac>
      }
      mask <<= 1;
 198:	e0bffc17 	ldw	r2,-16(fp)
 19c:	1085883a 	add	r2,r2,r2
 1a0:	e0bffc15 	stw	r2,-16(fp)
      i++;
 1a4:	e0bffd17 	ldw	r2,-12(fp)
 1a8:	10800044 	addi	r2,r2,1
 1ac:	e0bffd15 	stw	r2,-12(fp)

    } while (1);
 1b0:	003fe106 	br	138 <__alt_exception_stack_pointer+0xf8000138>

    active = alt_irq_pending ();
 1b4:	e0bffb15 	stw	r2,-20(fp)
    
  } while (active);
 1b8:	e0bffb17 	ldw	r2,-20(fp)
 1bc:	103fdb1e 	bne	r2,zero,12c <__alt_exception_stack_pointer+0xf800012c>

  /*
   * Notify the operating system that interrupt processing is complete.
   */ 

  ALT_OS_INT_EXIT();
 1c0:	0001883a 	nop
}
 1c4:	0001883a 	nop
 1c8:	e037883a 	mov	sp,fp
 1cc:	dfc00117 	ldw	ra,4(sp)
 1d0:	df000017 	ldw	fp,0(sp)
 1d4:	dec00204 	addi	sp,sp,8
 1d8:	f800283a 	ret

000001dc <alt_instruction_exception_entry>:
 * that handler if it has been registered. Absent a handler, it will
 * break break or hang as discussed below.
 */
int 
alt_instruction_exception_entry (alt_u32 exception_pc)
{
 1dc:	defffb04 	addi	sp,sp,-20
 1e0:	dfc00415 	stw	ra,16(sp)
 1e4:	df000315 	stw	fp,12(sp)
 1e8:	df000304 	addi	fp,sp,12
 1ec:	e13fff15 	stw	r4,-4(fp)
  cause = ( (cause & NIOS2_EXCEPTION_REG_CAUSE_MASK) >>
              NIOS2_EXCEPTION_REG_CAUSE_OFST );

  NIOS2_READ_BADADDR(badaddr);
#else
  cause = NIOS2_EXCEPTION_CAUSE_NOT_PRESENT;
 1f0:	00bfffc4 	movi	r2,-1
 1f4:	e0bffd15 	stw	r2,-12(fp)
  badaddr = 0;
 1f8:	e03ffe15 	stw	zero,-8(fp)
#endif /* NIOS2_HAS_EXTRA_EXCEPTION_INFO */

  if(alt_instruction_exception_handler) {
 1fc:	d0a90017 	ldw	r2,-23552(gp)
 200:	10000726 	beq	r2,zero,220 <alt_instruction_exception_entry+0x44>
     * Call handler. Its return value indicates whether the exception-causing
     * instruction should be re-issued. The code that called us,
     * alt_eceptions_entry.S, will look at this value and adjust the ea
     * register as necessary
     */
    return alt_instruction_exception_handler(cause, exception_pc, badaddr);
 204:	d0a90017 	ldw	r2,-23552(gp)
 208:	e0fffd17 	ldw	r3,-12(fp)
 20c:	e1bffe17 	ldw	r6,-8(fp)
 210:	e17fff17 	ldw	r5,-4(fp)
 214:	1809883a 	mov	r4,r3
 218:	103ee83a 	callr	r2
 21c:	00000206 	br	228 <alt_instruction_exception_entry+0x4c>
   *    (a peripheral which negates its interrupt output before its
   *    interrupt handler has been executed will cause spurious interrupts)
   */
  else {
#ifdef NIOS2_HAS_DEBUG_STUB
    NIOS2_BREAK();
 220:	003da03a 	break	0
      ;
#endif /* NIOS2_HAS_DEBUG_STUB */
  }

  /* We should not get here. Remove compiler warning. */
  return NIOS2_EXCEPTION_RETURN_REISSUE_INST;
 224:	0005883a 	mov	r2,zero
}
 228:	e037883a 	mov	sp,fp
 22c:	dfc00117 	ldw	ra,4(sp)
 230:	df000017 	ldw	fp,0(sp)
 234:	dec00204 	addi	sp,sp,8
 238:	f800283a 	ret

Disassembly of section .text:

0000023c <_start>:

    /*
     * Now that the caches are initialized, set up the stack pointer and global pointer.
     * The values provided by the linker are assumed to be correctly aligned.
     */
    movhi sp, %hi(__alt_stack_pointer)
     23c:	06c1fff4 	movhi	sp,2047
    ori sp, sp, %lo(__alt_stack_pointer)
     240:	deff0014 	ori	sp,sp,64512
    movhi gp, %hi(_gp)
     244:	068000b4 	movhi	gp,2
    ori gp, gp, %lo(_gp)
     248:	d6892714 	ori	gp,gp,9372
 */
#ifndef ALT_SIM_OPTIMIZE
    /* Log that the BSS is about to be cleared. */
    ALT_LOG_PUTS(alt_log_msg_bss)

    movhi r2, %hi(__bss_start)
     24c:	00800074 	movhi	r2,1
    ori r2, r2, %lo(__bss_start)
     250:	10b21214 	ori	r2,r2,51272

    movhi r3, %hi(__bss_end)
     254:	00c00074 	movhi	r3,1
    ori r3, r3, %lo(__bss_end)
     258:	18f27214 	ori	r3,r3,51656

    beq r2, r3, 1f
     25c:	10c00326 	beq	r2,r3,26c <_start+0x30>

0:
    stw zero, (r2)
     260:	10000015 	stw	zero,0(r2)
    addi r2, r2, 4
     264:	10800104 	addi	r2,r2,4
    bltu r2, r3, 0b
     268:	10fffd36 	bltu	r2,r3,260 <__alt_exception_stack_pointer+0xf8000260>
     * section aren't defined until alt_load() has been called).
     */
    mov   et, zero
#endif

    call alt_load
     26c:	0013f180 	call	13f18 <alt_load>

    /* Log that alt_main is about to be called. */
    ALT_LOG_PUTS(alt_log_msg_alt_main)

    /* Call the C entry point. It should never return. */
    call alt_main
     270:	00140b40 	call	140b4 <alt_main>

00000274 <alt_after_alt_main>:

    /* Wait in infinite loop in case alt_main does return. */
alt_after_alt_main:
    br alt_after_alt_main
     274:	003fff06 	br	274 <__alt_exception_stack_pointer+0xf8000274>

00000278 <clear_screen>:
{0, 0, 1, 0, 1, 1, 0, 0, 1, 1, 1, 1, 0, 0, 0, 1, 0, 0, 0, 0, 0, 0, 1, 0, 0, 0, 0, 1, 0, 1, 1, 1, 1, 0, 0, 0, 0, 1, 1, 1, 0, 0, 0, 1, 0, 0, 0, 0, 0, 0, 1, 1, 1, 1, 1, 0, 0, 0, 0, 1, 0, 0, 0, 0, 0, 0, 0, 0, 1, 0, 0, 1, 1, 1, 0, 0, 0, 0, 0, 1, 0, 0, 0, 0, 0, 1, 0, 1, 0, 1, 0, 0, 1, 0, 1, 0, 1, 0, 0, 1, 0, 0, 0, 1, 0, 0, 0, 1, 0, 0, 1, 0, 0, 1, 0, 0, 1, 0, 1, 0, 1, 0, 0, 0, 1, 0, 0, 0, 1, 1, 1, 0, 0, 0, 0, 0, 1, 0, 0, 0, 0, 1, 0, 0, 0, 1, 0, 0, 0, 1, 0, 0, 1, 0, 0, 1, 0, 1, 0, 1, 0, 0, 0, 0, 1, 0, 0, 0, 0, 0, 0, 1, 0, 0, 0, 0, 0, 0, 1, 0, 0, 0, 0, 1, 0, 0, 0, 1, 0, 0, 0, 0, 1, 0, 0, 0, 0, 0, 0, 0, 1, 0, 0, 0, 0, 0, 1, 1, 0, 0, 0, 1, 0, 0, 1, 0, 0, 0, 0, 1, 1, 1, 0, 0, 0, 0, 1, 1, 1, 1, 0, 0, 0, 0, 0, 1, 0, 0, 0, 0, 1, 1, 1, 0, 0, 0, 0, 1, 1, 1, 1, 0},
{0, 1, 1, 1, 1, 1, 0, 0, 1, 0, 0, 0, 1, 0, 0, 1, 0, 0, 0, 0, 0, 0, 1, 0, 0, 0, 0, 1, 0, 1, 0, 0, 0, 0, 0, 0, 0, 1, 0, 1, 0, 0, 0, 1, 0, 1, 1, 1, 1, 0, 1, 0, 0, 0, 1, 0, 0, 0, 0, 1, 0, 0, 0, 0, 1, 0, 0, 0, 1, 0, 0, 1, 1, 0, 1, 0, 0, 0, 0, 1, 0, 0, 0, 1, 0, 1, 0, 1, 0, 1, 0, 0, 1, 0, 0, 1, 1, 0, 0, 1, 0, 0, 0, 1, 0, 0, 0, 1, 1, 1, 1, 0, 0, 1, 0, 0, 1, 1, 1, 0, 1, 1, 1, 1, 0, 0, 0, 0, 0, 0, 0, 1, 0, 0, 0, 0, 1, 0, 0, 0, 0, 1, 0, 0, 0, 1, 0, 0, 0, 1, 0, 1, 0, 0, 0, 1, 1, 0, 1, 1, 0, 0, 0, 1, 0, 1, 0, 0, 0, 0, 0, 1, 0, 0, 0, 0, 0, 1, 0, 0, 0, 0, 0, 1, 0, 0, 0, 1, 0, 0, 0, 0, 1, 0, 0, 0, 0, 0, 0, 1, 0, 0, 0, 0, 0, 0, 0, 0, 1, 0, 0, 1, 1, 1, 1, 1, 0, 0, 0, 0, 0, 0, 1, 0, 0, 0, 1, 0, 0, 1, 1, 0, 0, 0, 0, 1, 0, 0, 0, 1, 0, 0, 0, 1, 0, 0, 0, 0, 0, 0, 1, 0},
{0, 1, 0, 0, 0, 1, 0, 0, 1, 0, 0, 0, 1, 0, 0, 1, 0, 0, 0, 1, 0, 0, 1, 0, 0, 0, 1, 0, 0, 1, 0, 0, 0, 1, 0, 0, 0, 1, 0, 0, 0, 0, 0, 1, 0, 0, 0, 1, 0, 0, 1, 0, 0, 0, 1, 0, 0, 0, 0, 1, 0, 0, 0, 0, 1, 0, 0, 1, 1, 0, 0, 1, 0, 0, 0, 1, 0, 0, 0, 1, 0, 0, 0, 1, 0, 1, 0, 0, 0, 1, 0, 0, 1, 0, 0, 1, 1, 0, 0, 1, 0, 0, 0, 1, 0, 0, 0, 1, 0, 0, 0, 0, 0, 1, 0, 0, 0, 1, 1, 0, 1, 0, 0, 0, 1, 0, 0, 1, 0, 0, 0, 1, 0, 0, 0, 0, 1, 0, 0, 0, 0, 1, 0, 0, 0, 1, 0, 0, 0, 1, 0, 1, 0, 0, 0, 1, 1, 0, 1, 1, 0, 0, 1, 0, 0, 0, 1, 0, 0, 0, 0, 1, 0, 0, 0, 0, 1, 0, 0, 0, 1, 0, 0, 1, 0, 0, 0, 1, 0, 0, 0, 0, 1, 0, 0, 0, 0, 0, 1, 0, 0, 0, 0, 0, 1, 0, 0, 0, 1, 0, 0, 0, 0, 0, 1, 0, 0, 0, 1, 0, 0, 0, 1, 0, 0, 0, 1, 0, 0, 0, 1, 0, 0, 0, 1, 0, 0, 0, 0, 1, 0, 0, 0, 1, 0, 0, 0, 0, 0, 1, 1, 0},
{1, 1, 1, 0, 1, 1, 1, 1, 1, 1, 1, 1, 1, 0, 0, 0, 1, 1, 1, 1, 0, 0, 1, 1, 1, 1, 1, 0, 1, 1, 1, 1, 1, 1, 0, 0, 1, 1, 1, 1, 0, 0, 0, 0, 1, 1, 1, 0, 0, 1, 1, 1, 0, 1, 1, 1, 0, 1, 1, 1, 1, 1, 0, 0, 0, 1, 1, 1, 0, 0, 1, 1, 1, 0, 0, 1, 1, 0, 1, 1, 1, 1, 1, 1, 1, 1, 1, 0, 1, 1, 1, 1, 1, 1, 0, 0, 1, 0, 0, 0, 1, 1, 1, 0, 0, 0, 1, 1, 1, 1, 0, 0, 0, 0, 1, 1, 1, 1, 0, 1, 1, 1, 0, 0, 0, 1, 0, 1, 1, 1, 1, 0, 0, 0, 0, 1, 1, 1, 0, 0, 0, 0, 1, 1, 1, 0, 0, 0, 0, 0, 1, 0, 0, 0, 0, 1, 0, 0, 0, 1, 0, 1, 1, 1, 0, 1, 1, 1, 0, 0, 1, 1, 1, 0, 0, 0, 1, 1, 1, 1, 1, 0, 0, 0, 1, 1, 1, 0, 0, 0, 1, 1, 1, 1, 1, 0, 0, 1, 1, 1, 1, 1, 0, 0, 0, 1, 1, 1, 0, 0, 0, 0, 0, 1, 1, 1, 0, 0, 0, 1, 1, 1, 0, 0, 0, 0, 0, 1, 1, 1, 0, 0, 0, 0, 1, 0, 0, 0, 0, 0, 1, 1, 1, 0, 0, 0, 0, 1, 1, 1, 0, 0}};

void clear_screen(volatile gpu_core_t* gpu, int should_wait) {
     278:	defffd04 	addi	sp,sp,-12
     27c:	df000215 	stw	fp,8(sp)
     280:	df000204 	addi	fp,sp,8
     284:	e13ffe15 	stw	r4,-8(fp)
     288:	e17fff15 	stw	r5,-4(fp)
	gpu->mode = GPU_MODE_CLEAR_FRAME;
     28c:	e0bffe17 	ldw	r2,-8(fp)
     290:	00c00084 	movi	r3,2
     294:	10c00815 	stw	r3,32(r2)
	gpu->done = 0;
     298:	e0bffe17 	ldw	r2,-8(fp)
     29c:	10000215 	stw	zero,8(r2)
	gpu->start = 0;
     2a0:	e0bffe17 	ldw	r2,-8(fp)
     2a4:	10000115 	stw	zero,4(r2)
	gpu->start = 1;
     2a8:	e0bffe17 	ldw	r2,-8(fp)
     2ac:	00c00044 	movi	r3,1
     2b0:	10c00115 	stw	r3,4(r2)
	if (should_wait == 1) {
     2b4:	e0bfff17 	ldw	r2,-4(fp)
     2b8:	10800058 	cmpnei	r2,r2,1
     2bc:	1000041e 	bne	r2,zero,2d0 <clear_screen+0x58>
		while (gpu->done == 0) {
     2c0:	0001883a 	nop
     2c4:	e0bffe17 	ldw	r2,-8(fp)
     2c8:	10800217 	ldw	r2,8(r2)
     2cc:	103ffd26 	beq	r2,zero,2c4 <__alt_exception_stack_pointer+0xf80002c4>
		}
	}
	gpu->mode = GPU_MODE_IDLE;
     2d0:	e0bffe17 	ldw	r2,-8(fp)
     2d4:	10000815 	stw	zero,32(r2)
}
     2d8:	0001883a 	nop
     2dc:	e037883a 	mov	sp,fp
     2e0:	df000017 	ldw	fp,0(sp)
     2e4:	dec00104 	addi	sp,sp,4
     2e8:	f800283a 	ret

000002ec <clear_depth>:

void clear_depth(volatile gpu_core_t* gpu, int should_wait) {
     2ec:	defffd04 	addi	sp,sp,-12
     2f0:	df000215 	stw	fp,8(sp)
     2f4:	df000204 	addi	fp,sp,8
     2f8:	e13ffe15 	stw	r4,-8(fp)
     2fc:	e17fff15 	stw	r5,-4(fp)
	gpu->mode = GPU_MODE_CLEAR_DEPTH;
     300:	e0bffe17 	ldw	r2,-8(fp)
     304:	00c000c4 	movi	r3,3
     308:	10c00815 	stw	r3,32(r2)
	gpu->done = 0;
     30c:	e0bffe17 	ldw	r2,-8(fp)
     310:	10000215 	stw	zero,8(r2)
	gpu->start = 0;
     314:	e0bffe17 	ldw	r2,-8(fp)
     318:	10000115 	stw	zero,4(r2)
	gpu->start = 1;
     31c:	e0bffe17 	ldw	r2,-8(fp)
     320:	00c00044 	movi	r3,1
     324:	10c00115 	stw	r3,4(r2)
	if (should_wait == 1) {
     328:	e0bfff17 	ldw	r2,-4(fp)
     32c:	10800058 	cmpnei	r2,r2,1
     330:	1000041e 	bne	r2,zero,344 <clear_depth+0x58>
		while (gpu->done == 0) {
     334:	0001883a 	nop
     338:	e0bffe17 	ldw	r2,-8(fp)
     33c:	10800217 	ldw	r2,8(r2)
     340:	103ffd26 	beq	r2,zero,338 <__alt_exception_stack_pointer+0xf8000338>
		}
	}
	gpu->mode = GPU_MODE_IDLE;
     344:	e0bffe17 	ldw	r2,-8(fp)
     348:	10000815 	stw	zero,32(r2)
}
     34c:	0001883a 	nop
     350:	e037883a 	mov	sp,fp
     354:	df000017 	ldw	fp,0(sp)
     358:	dec00104 	addi	sp,sp,4
     35c:	f800283a 	ret

00000360 <draw_cube>:

void draw_cube(volatile gpu_core_t* gpu, int scale, int x, int y, int z,
		int block_id) {
     360:	defffb04 	addi	sp,sp,-20
     364:	df000415 	stw	fp,16(sp)
     368:	df000404 	addi	fp,sp,16
     36c:	e13ffc15 	stw	r4,-16(fp)
     370:	e17ffd15 	stw	r5,-12(fp)
     374:	e1bffe15 	stw	r6,-8(fp)
     378:	e1ffff15 	stw	r7,-4(fp)
	gpu->mode = GPU_MODE_RENDER;
     37c:	e0bffc17 	ldw	r2,-16(fp)
     380:	00c00044 	movi	r3,1
     384:	10c00815 	stw	r3,32(r2)
	gpu->block_id = block_id;
     388:	e0bffc17 	ldw	r2,-16(fp)
     38c:	e0c00217 	ldw	r3,8(fp)
     390:	10c00915 	stw	r3,36(r2)
	gpu->scale = scale * (FP_SCALE);
     394:	e0bffd17 	ldw	r2,-12(fp)
     398:	1006923a 	slli	r3,r2,8
     39c:	e0bffc17 	ldw	r2,-16(fp)
     3a0:	10c00415 	stw	r3,16(r2)
	gpu->x = x * (FP_SCALE);
     3a4:	e0bffe17 	ldw	r2,-8(fp)
     3a8:	1006923a 	slli	r3,r2,8
     3ac:	e0bffc17 	ldw	r2,-16(fp)
     3b0:	10c00515 	stw	r3,20(r2)
	gpu->y = y * (FP_SCALE);
     3b4:	e0bfff17 	ldw	r2,-4(fp)
     3b8:	1006923a 	slli	r3,r2,8
     3bc:	e0bffc17 	ldw	r2,-16(fp)
     3c0:	10c00615 	stw	r3,24(r2)
	gpu->z = (z) * (FP_SCALE);
     3c4:	e0800117 	ldw	r2,4(fp)
     3c8:	1006923a 	slli	r3,r2,8
     3cc:	e0bffc17 	ldw	r2,-16(fp)
     3d0:	10c00715 	stw	r3,28(r2)
	gpu->done = 0;
     3d4:	e0bffc17 	ldw	r2,-16(fp)
     3d8:	10000215 	stw	zero,8(r2)
	gpu->start = 0;
     3dc:	e0bffc17 	ldw	r2,-16(fp)
     3e0:	10000115 	stw	zero,4(r2)
	gpu->start = 1;
     3e4:	e0bffc17 	ldw	r2,-16(fp)
     3e8:	00c00044 	movi	r3,1
     3ec:	10c00115 	stw	r3,4(r2)
	while (gpu->done == 0) {
     3f0:	0001883a 	nop
     3f4:	e0bffc17 	ldw	r2,-16(fp)
     3f8:	10800217 	ldw	r2,8(r2)
     3fc:	103ffd26 	beq	r2,zero,3f4 <__alt_exception_stack_pointer+0xf80003f4>

	}

	gpu->done = 0;
     400:	e0bffc17 	ldw	r2,-16(fp)
     404:	10000215 	stw	zero,8(r2)
	gpu->mode = GPU_MODE_IDLE;
     408:	e0bffc17 	ldw	r2,-16(fp)
     40c:	10000815 	stw	zero,32(r2)

}
     410:	0001883a 	nop
     414:	e037883a 	mov	sp,fp
     418:	df000017 	ldw	fp,0(sp)
     41c:	dec00104 	addi	sp,sp,4
     420:	f800283a 	ret

00000424 <draw_string>:

void draw_string(frame_buffer_t* frame, char* s, int num_chars, int x, int y) {
     424:	defff404 	addi	sp,sp,-48
     428:	dfc00b15 	stw	ra,44(sp)
     42c:	df000a15 	stw	fp,40(sp)
     430:	dc400915 	stw	r17,36(sp)
     434:	dc000815 	stw	r16,32(sp)
     438:	df000a04 	addi	fp,sp,40
     43c:	e13ffa15 	stw	r4,-24(fp)
     440:	e17ffb15 	stw	r5,-20(fp)
     444:	e1bffc15 	stw	r6,-16(fp)
     448:	e1fffd15 	stw	r7,-12(fp)
	int x_offset = 0;
     44c:	e03ff615 	stw	zero,-40(fp)
	for(int i = 0; i < num_chars; i++) {
     450:	e03ff715 	stw	zero,-36(fp)
     454:	00007306 	br	624 <draw_string+0x200>
		if(s[i] == '.') {
     458:	e0bff717 	ldw	r2,-36(fp)
     45c:	e0fffb17 	ldw	r3,-20(fp)
     460:	1885883a 	add	r2,r3,r2
     464:	10800003 	ldbu	r2,0(r2)
     468:	10803fcc 	andi	r2,r2,255
     46c:	1080201c 	xori	r2,r2,128
     470:	10bfe004 	addi	r2,r2,-128
     474:	10800b98 	cmpnei	r2,r2,46
     478:	10001c1e 	bne	r2,zero,4ec <draw_string+0xc8>
			pixel_t black = {0, 0, 0, 0};
     47c:	e03ff805 	stb	zero,-32(fp)
     480:	e03ff845 	stb	zero,-31(fp)
     484:	e03ff885 	stb	zero,-30(fp)
     488:	e03ff8c5 	stb	zero,-29(fp)
			frame->D2[y + 6][x + x_offset] = black;
     48c:	e0800217 	ldw	r2,8(fp)
     490:	11000184 	addi	r4,r2,6
     494:	e0fffd17 	ldw	r3,-12(fp)
     498:	e0bff617 	ldw	r2,-40(fp)
     49c:	18a3883a 	add	r17,r3,r2
     4a0:	e43ffa17 	ldw	r16,-24(fp)
     4a4:	01405004 	movi	r5,320
     4a8:	0005b840 	call	5b84 <__mulsi3>
     4ac:	1445883a 	add	r2,r2,r17
     4b0:	1085883a 	add	r2,r2,r2
     4b4:	1085883a 	add	r2,r2,r2
     4b8:	8085883a 	add	r2,r16,r2
     4bc:	e0fff803 	ldbu	r3,-32(fp)
     4c0:	10c00005 	stb	r3,0(r2)
     4c4:	e0fff843 	ldbu	r3,-31(fp)
     4c8:	10c00045 	stb	r3,1(r2)
     4cc:	e0fff883 	ldbu	r3,-30(fp)
     4d0:	10c00085 	stb	r3,2(r2)
     4d4:	e0fff8c3 	ldbu	r3,-29(fp)
     4d8:	10c000c5 	stb	r3,3(r2)
			x_offset += 2;
     4dc:	e0bff617 	ldw	r2,-40(fp)
     4e0:	10800084 	addi	r2,r2,2
     4e4:	e0bff615 	stw	r2,-40(fp)
     4e8:	00004b06 	br	618 <draw_string+0x1f4>
		} else if(s[i] == ':') {
     4ec:	e0bff717 	ldw	r2,-36(fp)
     4f0:	e0fffb17 	ldw	r3,-20(fp)
     4f4:	1885883a 	add	r2,r3,r2
     4f8:	10800003 	ldbu	r2,0(r2)
     4fc:	10803fcc 	andi	r2,r2,255
     500:	1080201c 	xori	r2,r2,128
     504:	10bfe004 	addi	r2,r2,-128
     508:	10800e98 	cmpnei	r2,r2,58
     50c:	1000301e 	bne	r2,zero,5d0 <draw_string+0x1ac>
			pixel_t black = {0, 0, 0, 0};
     510:	e03ff905 	stb	zero,-28(fp)
     514:	e03ff945 	stb	zero,-27(fp)
     518:	e03ff985 	stb	zero,-26(fp)
     51c:	e03ff9c5 	stb	zero,-25(fp)
			frame->D2[y + 6][x + x_offset] = black;
     520:	e0800217 	ldw	r2,8(fp)
     524:	11000184 	addi	r4,r2,6
     528:	e0fffd17 	ldw	r3,-12(fp)
     52c:	e0bff617 	ldw	r2,-40(fp)
     530:	18a3883a 	add	r17,r3,r2
     534:	e43ffa17 	ldw	r16,-24(fp)
     538:	01405004 	movi	r5,320
     53c:	0005b840 	call	5b84 <__mulsi3>
     540:	1445883a 	add	r2,r2,r17
     544:	1085883a 	add	r2,r2,r2
     548:	1085883a 	add	r2,r2,r2
     54c:	8085883a 	add	r2,r16,r2
     550:	e0fff903 	ldbu	r3,-28(fp)
     554:	10c00005 	stb	r3,0(r2)
     558:	e0fff943 	ldbu	r3,-27(fp)
     55c:	10c00045 	stb	r3,1(r2)
     560:	e0fff983 	ldbu	r3,-26(fp)
     564:	10c00085 	stb	r3,2(r2)
     568:	e0fff9c3 	ldbu	r3,-25(fp)
     56c:	10c000c5 	stb	r3,3(r2)
			frame->D2[y + 1][x + x_offset] = black;
     570:	e0800217 	ldw	r2,8(fp)
     574:	11000044 	addi	r4,r2,1
     578:	e0fffd17 	ldw	r3,-12(fp)
     57c:	e0bff617 	ldw	r2,-40(fp)
     580:	18a3883a 	add	r17,r3,r2
     584:	e43ffa17 	ldw	r16,-24(fp)
     588:	01405004 	movi	r5,320
     58c:	0005b840 	call	5b84 <__mulsi3>
     590:	1445883a 	add	r2,r2,r17
     594:	1085883a 	add	r2,r2,r2
     598:	1085883a 	add	r2,r2,r2
     59c:	8085883a 	add	r2,r16,r2
     5a0:	e0fff903 	ldbu	r3,-28(fp)
     5a4:	10c00005 	stb	r3,0(r2)
     5a8:	e0fff943 	ldbu	r3,-27(fp)
     5ac:	10c00045 	stb	r3,1(r2)
     5b0:	e0fff983 	ldbu	r3,-26(fp)
     5b4:	10c00085 	stb	r3,2(r2)
     5b8:	e0fff9c3 	ldbu	r3,-25(fp)
     5bc:	10c000c5 	stb	r3,3(r2)
			x_offset += 2;
     5c0:	e0bff617 	ldw	r2,-40(fp)
     5c4:	10800084 	addi	r2,r2,2
     5c8:	e0bff615 	stw	r2,-40(fp)
     5cc:	00001206 	br	618 <draw_string+0x1f4>
		} else {
			draw_char(frame, s[i], x+x_offset, y);
     5d0:	e0bff717 	ldw	r2,-36(fp)
     5d4:	e0fffb17 	ldw	r3,-20(fp)
     5d8:	1885883a 	add	r2,r3,r2
     5dc:	10800003 	ldbu	r2,0(r2)
     5e0:	11003fcc 	andi	r4,r2,255
     5e4:	2100201c 	xori	r4,r4,128
     5e8:	213fe004 	addi	r4,r4,-128
     5ec:	e0fffd17 	ldw	r3,-12(fp)
     5f0:	e0bff617 	ldw	r2,-40(fp)
     5f4:	1885883a 	add	r2,r3,r2
     5f8:	e1c00217 	ldw	r7,8(fp)
     5fc:	100d883a 	mov	r6,r2
     600:	200b883a 	mov	r5,r4
     604:	e13ffa17 	ldw	r4,-24(fp)
     608:	00006500 	call	650 <draw_char>
			x_offset += 8;
     60c:	e0bff617 	ldw	r2,-40(fp)
     610:	10800204 	addi	r2,r2,8
     614:	e0bff615 	stw	r2,-40(fp)

}

void draw_string(frame_buffer_t* frame, char* s, int num_chars, int x, int y) {
	int x_offset = 0;
	for(int i = 0; i < num_chars; i++) {
     618:	e0bff717 	ldw	r2,-36(fp)
     61c:	10800044 	addi	r2,r2,1
     620:	e0bff715 	stw	r2,-36(fp)
     624:	e0fff717 	ldw	r3,-36(fp)
     628:	e0bffc17 	ldw	r2,-16(fp)
     62c:	18bf8a16 	blt	r3,r2,458 <__alt_exception_stack_pointer+0xf8000458>
		} else {
			draw_char(frame, s[i], x+x_offset, y);
			x_offset += 8;
		}
	}
}
     630:	0001883a 	nop
     634:	e6fffe04 	addi	sp,fp,-8
     638:	dfc00317 	ldw	ra,12(sp)
     63c:	df000217 	ldw	fp,8(sp)
     640:	dc400117 	ldw	r17,4(sp)
     644:	dc000017 	ldw	r16,0(sp)
     648:	dec00404 	addi	sp,sp,16
     64c:	f800283a 	ret

00000650 <draw_char>:

void draw_char(frame_buffer_t* frame, char c, int x, int y) {
     650:	defff404 	addi	sp,sp,-48
     654:	dfc00b15 	stw	ra,44(sp)
     658:	df000a15 	stw	fp,40(sp)
     65c:	dc400915 	stw	r17,36(sp)
     660:	dc000815 	stw	r16,32(sp)
     664:	df000a04 	addi	fp,sp,40
     668:	e13ffa15 	stw	r4,-24(fp)
     66c:	2805883a 	mov	r2,r5
     670:	e1bffc15 	stw	r6,-16(fp)
     674:	e1fffd15 	stw	r7,-12(fp)
     678:	e0bffb05 	stb	r2,-20(fp)
	int offset = 0;
     67c:	e03ff615 	stw	zero,-40(fp)
	if(c >= 'A') {
     680:	e0bffb07 	ldb	r2,-20(fp)
     684:	10801050 	cmplti	r2,r2,65
     688:	1000041e 	bne	r2,zero,69c <draw_char+0x4c>
		offset = c - 'A';
     68c:	e0bffb07 	ldb	r2,-20(fp)
     690:	10bfefc4 	addi	r2,r2,-65
     694:	e0bff615 	stw	r2,-40(fp)
     698:	00000306 	br	6a8 <draw_char+0x58>
	} else {
		offset = c - '0' + 26;
     69c:	e0bffb07 	ldb	r2,-20(fp)
     6a0:	10bffa84 	addi	r2,r2,-22
     6a4:	e0bff615 	stw	r2,-40(fp)
	}
	pixel_t black = {0, 0, 0, 0};
     6a8:	e03ff905 	stb	zero,-28(fp)
     6ac:	e03ff945 	stb	zero,-27(fp)
     6b0:	e03ff985 	stb	zero,-26(fp)
     6b4:	e03ff9c5 	stb	zero,-25(fp)
	for(int i = 0; i < 7; i++) {
     6b8:	e03ff715 	stw	zero,-36(fp)
     6bc:	00003306 	br	78c <draw_char+0x13c>
		for(int j = 0; j < 7; j++) {
     6c0:	e03ff815 	stw	zero,-32(fp)
     6c4:	00002b06 	br	774 <draw_char+0x124>
			if(font_data[i][j + offset*7]) {
     6c8:	014001c4 	movi	r5,7
     6cc:	e13ff617 	ldw	r4,-40(fp)
     6d0:	0005b840 	call	5b84 <__mulsi3>
     6d4:	1007883a 	mov	r3,r2
     6d8:	e0bff817 	ldw	r2,-32(fp)
     6dc:	18a3883a 	add	r17,r3,r2
     6e0:	040000b4 	movhi	r16,2
     6e4:	84206604 	addi	r16,r16,-32360
     6e8:	e0bff717 	ldw	r2,-36(fp)
     6ec:	01403f04 	movi	r5,252
     6f0:	1009883a 	mov	r4,r2
     6f4:	0005b840 	call	5b84 <__mulsi3>
     6f8:	8085883a 	add	r2,r16,r2
     6fc:	1445883a 	add	r2,r2,r17
     700:	10800003 	ldbu	r2,0(r2)
     704:	10803fcc 	andi	r2,r2,255
     708:	1080201c 	xori	r2,r2,128
     70c:	10bfe004 	addi	r2,r2,-128
     710:	10001526 	beq	r2,zero,768 <draw_char+0x118>
				frame->D2[i + y][j + x] = black;
     714:	e0fff717 	ldw	r3,-36(fp)
     718:	e0bffd17 	ldw	r2,-12(fp)
     71c:	1889883a 	add	r4,r3,r2
     720:	e0fff817 	ldw	r3,-32(fp)
     724:	e0bffc17 	ldw	r2,-16(fp)
     728:	18a3883a 	add	r17,r3,r2
     72c:	e43ffa17 	ldw	r16,-24(fp)
     730:	01405004 	movi	r5,320
     734:	0005b840 	call	5b84 <__mulsi3>
     738:	1445883a 	add	r2,r2,r17
     73c:	1085883a 	add	r2,r2,r2
     740:	1085883a 	add	r2,r2,r2
     744:	8085883a 	add	r2,r16,r2
     748:	e0fff903 	ldbu	r3,-28(fp)
     74c:	10c00005 	stb	r3,0(r2)
     750:	e0fff943 	ldbu	r3,-27(fp)
     754:	10c00045 	stb	r3,1(r2)
     758:	e0fff983 	ldbu	r3,-26(fp)
     75c:	10c00085 	stb	r3,2(r2)
     760:	e0fff9c3 	ldbu	r3,-25(fp)
     764:	10c000c5 	stb	r3,3(r2)
	} else {
		offset = c - '0' + 26;
	}
	pixel_t black = {0, 0, 0, 0};
	for(int i = 0; i < 7; i++) {
		for(int j = 0; j < 7; j++) {
     768:	e0bff817 	ldw	r2,-32(fp)
     76c:	10800044 	addi	r2,r2,1
     770:	e0bff815 	stw	r2,-32(fp)
     774:	e0bff817 	ldw	r2,-32(fp)
     778:	108001d0 	cmplti	r2,r2,7
     77c:	103fd21e 	bne	r2,zero,6c8 <__alt_exception_stack_pointer+0xf80006c8>
		offset = c - 'A';
	} else {
		offset = c - '0' + 26;
	}
	pixel_t black = {0, 0, 0, 0};
	for(int i = 0; i < 7; i++) {
     780:	e0bff717 	ldw	r2,-36(fp)
     784:	10800044 	addi	r2,r2,1
     788:	e0bff715 	stw	r2,-36(fp)
     78c:	e0bff717 	ldw	r2,-36(fp)
     790:	108001d0 	cmplti	r2,r2,7
     794:	103fca1e 	bne	r2,zero,6c0 <__alt_exception_stack_pointer+0xf80006c0>
			if(font_data[i][j + offset*7]) {
				frame->D2[i + y][j + x] = black;
			}
		}
	}
}
     798:	0001883a 	nop
     79c:	e6fffe04 	addi	sp,fp,-8
     7a0:	dfc00317 	ldw	ra,12(sp)
     7a4:	df000217 	ldw	fp,8(sp)
     7a8:	dc400117 	ldw	r17,4(sp)
     7ac:	dc000017 	ldw	r16,0(sp)
     7b0:	dec00404 	addi	sp,sp,16
     7b4:	f800283a 	ret

000007b8 <IO_init>:
//io_handler.c
#include "io_handler.h"
#include <stdio.h>

void IO_init(void)
{
     7b8:	deffff04 	addi	sp,sp,-4
     7bc:	df000015 	stw	fp,0(sp)
     7c0:	d839883a 	mov	fp,sp
	*otg_hpi_reset = 1;
     7c4:	00820034 	movhi	r2,2048
     7c8:	108c1004 	addi	r2,r2,12352
     7cc:	00c00044 	movi	r3,1
     7d0:	10c00005 	stb	r3,0(r2)
	*otg_hpi_cs = 1;
     7d4:	00820034 	movhi	r2,2048
     7d8:	108c1404 	addi	r2,r2,12368
     7dc:	00c00044 	movi	r3,1
     7e0:	10c00005 	stb	r3,0(r2)
	*otg_hpi_r = 1;
     7e4:	00820034 	movhi	r2,2048
     7e8:	108c1c04 	addi	r2,r2,12400
     7ec:	00c00044 	movi	r3,1
     7f0:	10c00005 	stb	r3,0(r2)
	*otg_hpi_w = 1;
     7f4:	00820034 	movhi	r2,2048
     7f8:	108c1804 	addi	r2,r2,12384
     7fc:	00c00044 	movi	r3,1
     800:	10c00005 	stb	r3,0(r2)
	*otg_hpi_address = 0;
     804:	00820034 	movhi	r2,2048
     808:	108c2404 	addi	r2,r2,12432
     80c:	10000015 	stw	zero,0(r2)
	*otg_hpi_data = 0;
     810:	00820034 	movhi	r2,2048
     814:	108c2004 	addi	r2,r2,12416
     818:	10000015 	stw	zero,0(r2)
	// Reset OTG chip
	*otg_hpi_cs = 0;
     81c:	00820034 	movhi	r2,2048
     820:	108c1404 	addi	r2,r2,12368
     824:	10000005 	stb	zero,0(r2)
	*otg_hpi_reset = 0;
     828:	00820034 	movhi	r2,2048
     82c:	108c1004 	addi	r2,r2,12352
     830:	10000005 	stb	zero,0(r2)
	*otg_hpi_reset = 1;
     834:	00820034 	movhi	r2,2048
     838:	108c1004 	addi	r2,r2,12352
     83c:	00c00044 	movi	r3,1
     840:	10c00005 	stb	r3,0(r2)
	*otg_hpi_cs = 1;
     844:	00820034 	movhi	r2,2048
     848:	108c1404 	addi	r2,r2,12368
     84c:	00c00044 	movi	r3,1
     850:	10c00005 	stb	r3,0(r2)
}
     854:	0001883a 	nop
     858:	e037883a 	mov	sp,fp
     85c:	df000017 	ldw	fp,0(sp)
     860:	dec00104 	addi	sp,sp,4
     864:	f800283a 	ret

00000868 <IO_write>:

void IO_write(alt_u8 Address, alt_u16 Data)
{
     868:	defffd04 	addi	sp,sp,-12
     86c:	df000215 	stw	fp,8(sp)
     870:	df000204 	addi	fp,sp,8
     874:	2007883a 	mov	r3,r4
     878:	2805883a 	mov	r2,r5
     87c:	e0fffe05 	stb	r3,-8(fp)
     880:	e0bfff0d 	sth	r2,-4(fp)
	*otg_hpi_address = Address;
     884:	00820034 	movhi	r2,2048
     888:	108c2404 	addi	r2,r2,12432
     88c:	e0fffe03 	ldbu	r3,-8(fp)
     890:	10c00015 	stw	r3,0(r2)
	*otg_hpi_data = Data;
     894:	00820034 	movhi	r2,2048
     898:	108c2004 	addi	r2,r2,12416
     89c:	e0ffff0b 	ldhu	r3,-4(fp)
     8a0:	10c00015 	stw	r3,0(r2)
	*otg_hpi_cs = 0;
     8a4:	00820034 	movhi	r2,2048
     8a8:	108c1404 	addi	r2,r2,12368
     8ac:	10000005 	stb	zero,0(r2)
	*otg_hpi_w = 0;
     8b0:	00820034 	movhi	r2,2048
     8b4:	108c1804 	addi	r2,r2,12384
     8b8:	10000005 	stb	zero,0(r2)
	*otg_hpi_w = 1;
     8bc:	00820034 	movhi	r2,2048
     8c0:	108c1804 	addi	r2,r2,12384
     8c4:	00c00044 	movi	r3,1
     8c8:	10c00005 	stb	r3,0(r2)
	*otg_hpi_cs = 1;
     8cc:	00820034 	movhi	r2,2048
     8d0:	108c1404 	addi	r2,r2,12368
     8d4:	00c00044 	movi	r3,1
     8d8:	10c00005 	stb	r3,0(r2)

}
     8dc:	0001883a 	nop
     8e0:	e037883a 	mov	sp,fp
     8e4:	df000017 	ldw	fp,0(sp)
     8e8:	dec00104 	addi	sp,sp,4
     8ec:	f800283a 	ret

000008f0 <IO_read>:

alt_u16 IO_read(alt_u8 Address)
{
     8f0:	defffd04 	addi	sp,sp,-12
     8f4:	df000215 	stw	fp,8(sp)
     8f8:	df000204 	addi	fp,sp,8
     8fc:	2005883a 	mov	r2,r4
     900:	e0bfff05 	stb	r2,-4(fp)
	alt_u16 temp;

	*otg_hpi_address = Address;
     904:	00820034 	movhi	r2,2048
     908:	108c2404 	addi	r2,r2,12432
     90c:	e0ffff03 	ldbu	r3,-4(fp)
     910:	10c00015 	stw	r3,0(r2)
	*otg_hpi_cs = 0;
     914:	00820034 	movhi	r2,2048
     918:	108c1404 	addi	r2,r2,12368
     91c:	10000005 	stb	zero,0(r2)
	*otg_hpi_r = 0;
     920:	00820034 	movhi	r2,2048
     924:	108c1c04 	addi	r2,r2,12400
     928:	10000005 	stb	zero,0(r2)
	temp = *otg_hpi_data;
     92c:	00820034 	movhi	r2,2048
     930:	108c2004 	addi	r2,r2,12416
     934:	10800017 	ldw	r2,0(r2)
     938:	e0bffe0d 	sth	r2,-8(fp)
	*otg_hpi_r = 1;
     93c:	00820034 	movhi	r2,2048
     940:	108c1c04 	addi	r2,r2,12400
     944:	00c00044 	movi	r3,1
     948:	10c00005 	stb	r3,0(r2)
	*otg_hpi_cs = 1;
     94c:	00820034 	movhi	r2,2048
     950:	108c1404 	addi	r2,r2,12368
     954:	00c00044 	movi	r3,1
     958:	10c00005 	stb	r3,0(r2)

	//printf("%x\n",temp);
	return temp;
     95c:	e0bffe0b 	ldhu	r2,-8(fp)
}
     960:	e037883a 	mov	sp,fp
     964:	df000017 	ldw	fp,0(sp)
     968:	dec00104 	addi	sp,sp,4
     96c:	f800283a 	ret

00000970 <loop_keyboard>:
	alt_u8 toggle = 0;
	alt_u8 data_size;
	alt_u8 hot_plug_count;
	alt_u16 code;

void loop_keyboard(int* keycode_ptr) {
     970:	defffd04 	addi	sp,sp,-12
     974:	dfc00215 	stw	ra,8(sp)
     978:	df000115 	stw	fp,4(sp)
     97c:	df000104 	addi	fp,sp,4
     980:	e13fff15 	stw	r4,-4(fp)

	toggle++;
     984:	d0a8ee03 	ldbu	r2,-23624(gp)
     988:	10800044 	addi	r2,r2,1
     98c:	d0a8ee05 	stb	r2,-23624(gp)
	IO_write(HPI_ADDR,0x0500); //the start address
     990:	01414004 	movi	r5,1280
     994:	01000084 	movi	r4,2
     998:	00008680 	call	868 <IO_write>
	//data phase IN-1
	IO_write(HPI_DATA,0x051c); //500
     99c:	01414704 	movi	r5,1308
     9a0:	0009883a 	mov	r4,zero
     9a4:	00008680 	call	868 <IO_write>

	IO_write(HPI_DATA,0x000f & data_size);//2 data length
     9a8:	d0a8ef03 	ldbu	r2,-23620(gp)
     9ac:	10803fcc 	andi	r2,r2,255
     9b0:	108003cc 	andi	r2,r2,15
     9b4:	100b883a 	mov	r5,r2
     9b8:	0009883a 	mov	r4,zero
     9bc:	00008680 	call	868 <IO_write>

	IO_write(HPI_DATA,0x0291);//4 //endpoint 1
     9c0:	0140a444 	movi	r5,657
     9c4:	0009883a 	mov	r4,zero
     9c8:	00008680 	call	868 <IO_write>
	if(toggle%2)
     9cc:	d0a8ee03 	ldbu	r2,-23624(gp)
     9d0:	1080004c 	andi	r2,r2,1
     9d4:	10803fcc 	andi	r2,r2,255
     9d8:	10000426 	beq	r2,zero,9ec <loop_keyboard+0x7c>
	{
		IO_write(HPI_DATA,0x0001);//6 //data 1
     9dc:	01400044 	movi	r5,1
     9e0:	0009883a 	mov	r4,zero
     9e4:	00008680 	call	868 <IO_write>
     9e8:	00000306 	br	9f8 <loop_keyboard+0x88>
	}
	else
	{
		IO_write(HPI_DATA,0x0041);//6 //data 1
     9ec:	01401044 	movi	r5,65
     9f0:	0009883a 	mov	r4,zero
     9f4:	00008680 	call	868 <IO_write>
	}
	IO_write(HPI_DATA,0x0013);//8
     9f8:	014004c4 	movi	r5,19
     9fc:	0009883a 	mov	r4,zero
     a00:	00008680 	call	868 <IO_write>
	IO_write(HPI_DATA,0x0000);//a
     a04:	000b883a 	mov	r5,zero
     a08:	0009883a 	mov	r4,zero
     a0c:	00008680 	call	868 <IO_write>
	UsbWrite(HUSB_SIE1_pCurrentTDPtr,0x0500); //HUSB_SIE1_pCurrentTDPtr
     a10:	01414004 	movi	r5,1280
     a14:	01006c04 	movi	r4,432
     a18:	000264c0 	call	264c <UsbWrite>

	while (!(IO_read(HPI_STATUS) & HPI_STATUS_SIE1msg_FLAG) )  //read sie1 msg register
     a1c:	00002506 	br	ab4 <loop_keyboard+0x144>
	{
		IO_write(HPI_ADDR,0x0500); //the start address
     a20:	01414004 	movi	r5,1280
     a24:	01000084 	movi	r4,2
     a28:	00008680 	call	868 <IO_write>
		//data phase IN-1
		IO_write(HPI_DATA,0x051c); //500
     a2c:	01414704 	movi	r5,1308
     a30:	0009883a 	mov	r4,zero
     a34:	00008680 	call	868 <IO_write>

		IO_write(HPI_DATA,0x000f & data_size);//2 data length
     a38:	d0a8ef03 	ldbu	r2,-23620(gp)
     a3c:	10803fcc 	andi	r2,r2,255
     a40:	108003cc 	andi	r2,r2,15
     a44:	100b883a 	mov	r5,r2
     a48:	0009883a 	mov	r4,zero
     a4c:	00008680 	call	868 <IO_write>

		IO_write(HPI_DATA,0x0291);//4 //endpoint 1
     a50:	0140a444 	movi	r5,657
     a54:	0009883a 	mov	r4,zero
     a58:	00008680 	call	868 <IO_write>
		if(toggle%2)
     a5c:	d0a8ee03 	ldbu	r2,-23624(gp)
     a60:	1080004c 	andi	r2,r2,1
     a64:	10803fcc 	andi	r2,r2,255
     a68:	10000426 	beq	r2,zero,a7c <loop_keyboard+0x10c>
		{
			IO_write(HPI_DATA,0x0001);//6 //data 1
     a6c:	01400044 	movi	r5,1
     a70:	0009883a 	mov	r4,zero
     a74:	00008680 	call	868 <IO_write>
     a78:	00000306 	br	a88 <loop_keyboard+0x118>
		}
		else
		{
			IO_write(HPI_DATA,0x0041);//6 //data 1
     a7c:	01401044 	movi	r5,65
     a80:	0009883a 	mov	r4,zero
     a84:	00008680 	call	868 <IO_write>
		}
		IO_write(HPI_DATA,0x0013);//8
     a88:	014004c4 	movi	r5,19
     a8c:	0009883a 	mov	r4,zero
     a90:	00008680 	call	868 <IO_write>
		IO_write(HPI_DATA,0x0000);//
     a94:	000b883a 	mov	r5,zero
     a98:	0009883a 	mov	r4,zero
     a9c:	00008680 	call	868 <IO_write>
		UsbWrite(HUSB_SIE1_pCurrentTDPtr,0x0500); //HUSB_SIE1_pCurrentTDPtr
     aa0:	01414004 	movi	r5,1280
     aa4:	01006c04 	movi	r4,432
     aa8:	000264c0 	call	264c <UsbWrite>
		usleep(10*1000);
     aac:	0109c404 	movi	r4,10000
     ab0:	00144a00 	call	144a0 <usleep>
	}
	IO_write(HPI_DATA,0x0013);//8
	IO_write(HPI_DATA,0x0000);//a
	UsbWrite(HUSB_SIE1_pCurrentTDPtr,0x0500); //HUSB_SIE1_pCurrentTDPtr

	while (!(IO_read(HPI_STATUS) & HPI_STATUS_SIE1msg_FLAG) )  //read sie1 msg register
     ab4:	010000c4 	movi	r4,3
     ab8:	00008f00 	call	8f0 <IO_read>
     abc:	10bfffcc 	andi	r2,r2,65535
     ac0:	1080040c 	andi	r2,r2,16
     ac4:	103fd626 	beq	r2,zero,a20 <__alt_exception_stack_pointer+0xf8000a20>
		IO_write(HPI_DATA,0x0000);//
		UsbWrite(HUSB_SIE1_pCurrentTDPtr,0x0500); //HUSB_SIE1_pCurrentTDPtr
		usleep(10*1000);
	}//end while

	usb_ctl_val = UsbWaitTDListDone();
     ac8:	000363c0 	call	363c <UsbWaitTDListDone>
     acc:	d0a8ee8d 	sth	r2,-23622(gp)

	// The first two keycodes are stored in 0x051E. Other keycodes are in
	// subsequent addresses.
	keycode = UsbRead(0x051e);
     ad0:	01014784 	movi	r4,1310
     ad4:	00026a40 	call	26a4 <UsbRead>
     ad8:	10bfffcc 	andi	r2,r2,65535
     adc:	d0a8ed15 	stw	r2,-23628(gp)
	printf("\nfirst two keycode values are %04x\n",keycode);
     ae0:	d0a8ed17 	ldw	r2,-23628(gp)
     ae4:	100b883a 	mov	r5,r2
     ae8:	01000074 	movhi	r4,1
     aec:	211ce204 	addi	r4,r4,29576
     af0:	000909c0 	call	909c <printf>
	// We only need the first keycode, which is at the lower byte of keycode.
	// Send the keycode to hardware via PIO.
	*keycode_base = keycode & 0xff;
     af4:	00820034 	movhi	r2,2048
     af8:	108c2804 	addi	r2,r2,12448
     afc:	d0e8ed17 	ldw	r3,-23628(gp)
     b00:	10c00005 	stb	r3,0(r2)
	*keycode_ptr = keycode & 0xff;
     b04:	d0a8ed17 	ldw	r2,-23628(gp)
     b08:	10c03fcc 	andi	r3,r2,255
     b0c:	e0bfff17 	ldw	r2,-4(fp)
     b10:	10c00015 	stw	r3,0(r2)

	usleep(200);//usleep(5000);
     b14:	01003204 	movi	r4,200
     b18:	00144a00 	call	144a0 <usleep>
	usb_ctl_val = UsbRead(ctl_reg);
     b1c:	d0a8eb0b 	ldhu	r2,-23636(gp)
     b20:	10bfffcc 	andi	r2,r2,65535
     b24:	1009883a 	mov	r4,r2
     b28:	00026a40 	call	26a4 <UsbRead>
     b2c:	d0a8ee8d 	sth	r2,-23622(gp)

	if(!(usb_ctl_val & no_device))
     b30:	d0e8ee8b 	ldhu	r3,-23622(gp)
     b34:	d0a8eb8b 	ldhu	r2,-23634(gp)
     b38:	1884703a 	and	r2,r3,r2
     b3c:	10bfffcc 	andi	r2,r2,65535
     b40:	1000401e 	bne	r2,zero,c44 <loop_keyboard+0x2d4>
	{
		//USB hot plug routine
		for(hot_plug_count = 0 ; hot_plug_count < 7 ; hot_plug_count++)
     b44:	d028f005 	stb	zero,-23616(gp)
     b48:	00000f06 	br	b88 <loop_keyboard+0x218>
		{
			usleep(5*1000);
     b4c:	0104e204 	movi	r4,5000
     b50:	00144a00 	call	144a0 <usleep>
			usb_ctl_val = UsbRead(ctl_reg);
     b54:	d0a8eb0b 	ldhu	r2,-23636(gp)
     b58:	10bfffcc 	andi	r2,r2,65535
     b5c:	1009883a 	mov	r4,r2
     b60:	00026a40 	call	26a4 <UsbRead>
     b64:	d0a8ee8d 	sth	r2,-23622(gp)
			if(usb_ctl_val & no_device) break;
     b68:	d0e8ee8b 	ldhu	r3,-23622(gp)
     b6c:	d0a8eb8b 	ldhu	r2,-23634(gp)
     b70:	1884703a 	and	r2,r3,r2
     b74:	10bfffcc 	andi	r2,r2,65535
     b78:	1000081e 	bne	r2,zero,b9c <loop_keyboard+0x22c>
	usb_ctl_val = UsbRead(ctl_reg);

	if(!(usb_ctl_val & no_device))
	{
		//USB hot plug routine
		for(hot_plug_count = 0 ; hot_plug_count < 7 ; hot_plug_count++)
     b7c:	d0a8f003 	ldbu	r2,-23616(gp)
     b80:	10800044 	addi	r2,r2,1
     b84:	d0a8f005 	stb	r2,-23616(gp)
     b88:	d0a8f003 	ldbu	r2,-23616(gp)
     b8c:	10803fcc 	andi	r2,r2,255
     b90:	108001f0 	cmpltui	r2,r2,7
     b94:	103fed1e 	bne	r2,zero,b4c <__alt_exception_stack_pointer+0xf8000b4c>
     b98:	00000106 	br	ba0 <loop_keyboard+0x230>
		{
			usleep(5*1000);
			usb_ctl_val = UsbRead(ctl_reg);
			if(usb_ctl_val & no_device) break;
     b9c:	0001883a 	nop
		}
		if(!(usb_ctl_val & no_device))
     ba0:	d0e8ee8b 	ldhu	r3,-23622(gp)
     ba4:	d0a8eb8b 	ldhu	r2,-23634(gp)
     ba8:	1884703a 	and	r2,r3,r2
     bac:	10bfffcc 	andi	r2,r2,65535
     bb0:	1000241e 	bne	r2,zero,c44 <loop_keyboard+0x2d4>
		{
			printf("\n[INFO]: the keyboard has been removed!!! \n");
     bb4:	01000074 	movhi	r4,1
     bb8:	211ceb04 	addi	r4,r4,29612
     bbc:	00091980 	call	9198 <puts>
			printf("[INFO]: please insert again!!! \n");
     bc0:	01000074 	movhi	r4,1
     bc4:	211cf604 	addi	r4,r4,29656
     bc8:	00091980 	call	9198 <puts>
		}
	}

	while (!(usb_ctl_val & no_device))
     bcc:	00001d06 	br	c44 <loop_keyboard+0x2d4>
	{

		usb_ctl_val = UsbRead(ctl_reg);
     bd0:	d0a8eb0b 	ldhu	r2,-23636(gp)
     bd4:	10bfffcc 	andi	r2,r2,65535
     bd8:	1009883a 	mov	r4,r2
     bdc:	00026a40 	call	26a4 <UsbRead>
     be0:	d0a8ee8d 	sth	r2,-23622(gp)
		usleep(5*1000);
     be4:	0104e204 	movi	r4,5000
     be8:	00144a00 	call	144a0 <usleep>
		usb_ctl_val = UsbRead(ctl_reg);
     bec:	d0a8eb0b 	ldhu	r2,-23636(gp)
     bf0:	10bfffcc 	andi	r2,r2,65535
     bf4:	1009883a 	mov	r4,r2
     bf8:	00026a40 	call	26a4 <UsbRead>
     bfc:	d0a8ee8d 	sth	r2,-23622(gp)
		usleep(5*1000);
     c00:	0104e204 	movi	r4,5000
     c04:	00144a00 	call	144a0 <usleep>
		usb_ctl_val = UsbRead(ctl_reg);
     c08:	d0a8eb0b 	ldhu	r2,-23636(gp)
     c0c:	10bfffcc 	andi	r2,r2,65535
     c10:	1009883a 	mov	r4,r2
     c14:	00026a40 	call	26a4 <UsbRead>
     c18:	d0a8ee8d 	sth	r2,-23622(gp)
		usleep(5*1000);
     c1c:	0104e204 	movi	r4,5000
     c20:	00144a00 	call	144a0 <usleep>

		if(usb_ctl_val & no_device)
     c24:	d0e8ee8b 	ldhu	r3,-23622(gp)
     c28:	d0a8eb8b 	ldhu	r2,-23634(gp)
     c2c:	1884703a 	and	r2,r3,r2
     c30:	10bfffcc 	andi	r2,r2,65535
     c34:	10000126 	beq	r2,zero,c3c <loop_keyboard+0x2cc>
			init_keyboard();
     c38:	0000c700 	call	c70 <init_keyboard>
			//goto USB_HOT_PLUG;

		usleep(200);
     c3c:	01003204 	movi	r4,200
     c40:	00144a00 	call	144a0 <usleep>
			printf("\n[INFO]: the keyboard has been removed!!! \n");
			printf("[INFO]: please insert again!!! \n");
		}
	}

	while (!(usb_ctl_val & no_device))
     c44:	d0e8ee8b 	ldhu	r3,-23622(gp)
     c48:	d0a8eb8b 	ldhu	r2,-23634(gp)
     c4c:	1884703a 	and	r2,r3,r2
     c50:	10bfffcc 	andi	r2,r2,65535
     c54:	103fde26 	beq	r2,zero,bd0 <__alt_exception_stack_pointer+0xf8000bd0>
			//goto USB_HOT_PLUG;

		usleep(200);
	}

}
     c58:	0001883a 	nop
     c5c:	e037883a 	mov	sp,fp
     c60:	dfc00117 	ldw	ra,4(sp)
     c64:	df000017 	ldw	fp,0(sp)
     c68:	dec00204 	addi	sp,sp,8
     c6c:	f800283a 	ret

00000c70 <init_keyboard>:

void init_keyboard() {
     c70:	defffe04 	addi	sp,sp,-8
     c74:	dfc00115 	stw	ra,4(sp)
     c78:	df000015 	stw	fp,0(sp)
     c7c:	d839883a 	mov	fp,sp
	IO_init();
     c80:	00007b80 	call	7b8 <IO_init>
		//UsbRead(0xc008);
		usleep(10*10000);
	}*/


	printf("USB keyboard setup...\n\n");
     c84:	01000074 	movhi	r4,1
     c88:	211cfe04 	addi	r4,r4,29688
     c8c:	00091980 	call	9198 <puts>

	//----------------------------------------SIE1 initial---------------------------------------------------//
	USB_HOT_PLUG:
	UsbSoftReset();
     c90:	00026e80 	call	26e8 <UsbSoftReset>

	// STEP 1a:
	UsbWrite (HPI_SIE1_MSG_ADR, 0);
     c94:	000b883a 	mov	r5,zero
     c98:	01005104 	movi	r4,324
     c9c:	000264c0 	call	264c <UsbWrite>
	UsbWrite (HOST1_STAT_REG, 0xFFFF);
     ca0:	017fffd4 	movui	r5,65535
     ca4:	01302414 	movui	r4,49296
     ca8:	000264c0 	call	264c <UsbWrite>

	/* Set HUSB_pEOT time */
	UsbWrite(HUSB_pEOT, 600); // adjust the according to your USB device speed
     cac:	01409604 	movi	r5,600
     cb0:	01006d04 	movi	r4,436
     cb4:	000264c0 	call	264c <UsbWrite>

	usb_ctl_val = SOFEOP1_TO_CPU_EN | RESUME1_TO_HPI_EN;// | SOFEOP1_TO_HPI_EN;
     cb8:	00811004 	movi	r2,1088
     cbc:	d0a8ee8d 	sth	r2,-23622(gp)
	UsbWrite(HPI_IRQ_ROUTING_REG, usb_ctl_val);
     cc0:	d0a8ee8b 	ldhu	r2,-23622(gp)
     cc4:	10bfffcc 	andi	r2,r2,65535
     cc8:	100b883a 	mov	r5,r2
     ccc:	01005084 	movi	r4,322
     cd0:	000264c0 	call	264c <UsbWrite>

	intStat = A_CHG_IRQ_EN | SOF_EOP_IRQ_EN ;
     cd4:	00808404 	movi	r2,528
     cd8:	d0a8ef8d 	sth	r2,-23618(gp)
	UsbWrite(HOST1_IRQ_EN_REG, intStat);
     cdc:	d0a8ef8b 	ldhu	r2,-23618(gp)
     ce0:	10bfffcc 	andi	r2,r2,65535
     ce4:	100b883a 	mov	r5,r2
     ce8:	01302314 	movui	r4,49292
     cec:	000264c0 	call	264c <UsbWrite>
	// STEP 1a end

	// STEP 1b begin
	UsbWrite(COMM_R0,0x0000);//reset time
     cf0:	000b883a 	mov	r5,zero
     cf4:	01007104 	movi	r4,452
     cf8:	000264c0 	call	264c <UsbWrite>
	UsbWrite(COMM_R1,0x0000);  //port number
     cfc:	000b883a 	mov	r5,zero
     d00:	01007184 	movi	r4,454
     d04:	000264c0 	call	264c <UsbWrite>
	UsbWrite(COMM_R2,0x0000);  //r1
     d08:	000b883a 	mov	r5,zero
     d0c:	01007204 	movi	r4,456
     d10:	000264c0 	call	264c <UsbWrite>
	UsbWrite(COMM_R3,0x0000);  //r1
     d14:	000b883a 	mov	r5,zero
     d18:	01007284 	movi	r4,458
     d1c:	000264c0 	call	264c <UsbWrite>
	UsbWrite(COMM_R4,0x0000);  //r1
     d20:	000b883a 	mov	r5,zero
     d24:	01007304 	movi	r4,460
     d28:	000264c0 	call	264c <UsbWrite>
	UsbWrite(COMM_R5,0x0000);  //r1
     d2c:	000b883a 	mov	r5,zero
     d30:	01007384 	movi	r4,462
     d34:	000264c0 	call	264c <UsbWrite>
	UsbWrite(COMM_R6,0x0000);  //r1
     d38:	000b883a 	mov	r5,zero
     d3c:	01007404 	movi	r4,464
     d40:	000264c0 	call	264c <UsbWrite>
	UsbWrite(COMM_R7,0x0000);  //r1
     d44:	000b883a 	mov	r5,zero
     d48:	01007484 	movi	r4,466
     d4c:	000264c0 	call	264c <UsbWrite>
	UsbWrite(COMM_R8,0x0000);  //r1
     d50:	000b883a 	mov	r5,zero
     d54:	01007504 	movi	r4,468
     d58:	000264c0 	call	264c <UsbWrite>
	UsbWrite(COMM_R9,0x0000);  //r1
     d5c:	000b883a 	mov	r5,zero
     d60:	01007584 	movi	r4,470
     d64:	000264c0 	call	264c <UsbWrite>
	UsbWrite(COMM_R10,0x0000);  //r1
     d68:	000b883a 	mov	r5,zero
     d6c:	01007604 	movi	r4,472
     d70:	000264c0 	call	264c <UsbWrite>
	UsbWrite(COMM_R11,0x0000);  //r1
     d74:	000b883a 	mov	r5,zero
     d78:	01007684 	movi	r4,474
     d7c:	000264c0 	call	264c <UsbWrite>
	UsbWrite(COMM_R12,0x0000);  //r1
     d80:	000b883a 	mov	r5,zero
     d84:	01007704 	movi	r4,476
     d88:	000264c0 	call	264c <UsbWrite>
	UsbWrite(COMM_R13,0x0000);  //r1
     d8c:	000b883a 	mov	r5,zero
     d90:	01007784 	movi	r4,478
     d94:	000264c0 	call	264c <UsbWrite>
	UsbWrite(COMM_INT_NUM,HUSB_SIE1_INIT_INT); //HUSB_SIE1_INIT_INT
     d98:	01401c84 	movi	r5,114
     d9c:	01007084 	movi	r4,450
     da0:	000264c0 	call	264c <UsbWrite>
	IO_write(HPI_MAILBOX,COMM_EXEC_INT);
     da4:	01738054 	movui	r5,52737
     da8:	01000044 	movi	r4,1
     dac:	00008680 	call	868 <IO_write>

	while (!(IO_read(HPI_STATUS) & 0xFFFF) )  //read sie1 msg register
     db0:	0001883a 	nop
     db4:	010000c4 	movi	r4,3
     db8:	00008f00 	call	8f0 <IO_read>
     dbc:	10bfffcc 	andi	r2,r2,65535
     dc0:	103ffc26 	beq	r2,zero,db4 <__alt_exception_stack_pointer+0xf8000db4>
	{
	}
	while (IO_read(HPI_MAILBOX) != COMM_ACK)
     dc4:	00000806 	br	de8 <init_keyboard+0x178>
	{
		printf("[ERROR]:routine mailbox data is %x\n",IO_read(HPI_MAILBOX));
     dc8:	01000044 	movi	r4,1
     dcc:	00008f00 	call	8f0 <IO_read>
     dd0:	10bfffcc 	andi	r2,r2,65535
     dd4:	100b883a 	mov	r5,r2
     dd8:	01000074 	movhi	r4,1
     ddc:	211d0404 	addi	r4,r4,29712
     de0:	000909c0 	call	909c <printf>
		goto USB_HOT_PLUG;
     de4:	003faa06 	br	c90 <__alt_exception_stack_pointer+0xf8000c90>
	IO_write(HPI_MAILBOX,COMM_EXEC_INT);

	while (!(IO_read(HPI_STATUS) & 0xFFFF) )  //read sie1 msg register
	{
	}
	while (IO_read(HPI_MAILBOX) != COMM_ACK)
     de8:	01000044 	movi	r4,1
     dec:	00008f00 	call	8f0 <IO_read>
     df0:	10bfffcc 	andi	r2,r2,65535
     df4:	1083fb58 	cmpnei	r2,r2,4077
     df8:	103ff31e 	bne	r2,zero,dc8 <__alt_exception_stack_pointer+0xf8000dc8>
		printf("[ERROR]:routine mailbox data is %x\n",IO_read(HPI_MAILBOX));
		goto USB_HOT_PLUG;
	}
	// STEP 1b end

	printf("STEP 1 Complete");
     dfc:	01000074 	movhi	r4,1
     e00:	211d0d04 	addi	r4,r4,29748
     e04:	000909c0 	call	909c <printf>
	// STEP 2 begin
	UsbWrite(COMM_INT_NUM,HUSB_RESET_INT); //husb reset
     e08:	01401d04 	movi	r5,116
     e0c:	01007084 	movi	r4,450
     e10:	000264c0 	call	264c <UsbWrite>
	UsbWrite(COMM_R0,0x003c);//reset time
     e14:	01400f04 	movi	r5,60
     e18:	01007104 	movi	r4,452
     e1c:	000264c0 	call	264c <UsbWrite>
	UsbWrite(COMM_R1,0x0000);  //port number
     e20:	000b883a 	mov	r5,zero
     e24:	01007184 	movi	r4,454
     e28:	000264c0 	call	264c <UsbWrite>
	UsbWrite(COMM_R2,0x0000);  //r1
     e2c:	000b883a 	mov	r5,zero
     e30:	01007204 	movi	r4,456
     e34:	000264c0 	call	264c <UsbWrite>
	UsbWrite(COMM_R3,0x0000);  //r1
     e38:	000b883a 	mov	r5,zero
     e3c:	01007284 	movi	r4,458
     e40:	000264c0 	call	264c <UsbWrite>
	UsbWrite(COMM_R4,0x0000);  //r1
     e44:	000b883a 	mov	r5,zero
     e48:	01007304 	movi	r4,460
     e4c:	000264c0 	call	264c <UsbWrite>
	UsbWrite(COMM_R5,0x0000);  //r1
     e50:	000b883a 	mov	r5,zero
     e54:	01007384 	movi	r4,462
     e58:	000264c0 	call	264c <UsbWrite>
	UsbWrite(COMM_R6,0x0000);  //r1
     e5c:	000b883a 	mov	r5,zero
     e60:	01007404 	movi	r4,464
     e64:	000264c0 	call	264c <UsbWrite>
	UsbWrite(COMM_R7,0x0000);  //r1
     e68:	000b883a 	mov	r5,zero
     e6c:	01007484 	movi	r4,466
     e70:	000264c0 	call	264c <UsbWrite>
	UsbWrite(COMM_R8,0x0000);  //r1
     e74:	000b883a 	mov	r5,zero
     e78:	01007504 	movi	r4,468
     e7c:	000264c0 	call	264c <UsbWrite>
	UsbWrite(COMM_R9,0x0000);  //r1
     e80:	000b883a 	mov	r5,zero
     e84:	01007584 	movi	r4,470
     e88:	000264c0 	call	264c <UsbWrite>
	UsbWrite(COMM_R10,0x0000);  //r1
     e8c:	000b883a 	mov	r5,zero
     e90:	01007604 	movi	r4,472
     e94:	000264c0 	call	264c <UsbWrite>
	UsbWrite(COMM_R11,0x0000);  //r1
     e98:	000b883a 	mov	r5,zero
     e9c:	01007684 	movi	r4,474
     ea0:	000264c0 	call	264c <UsbWrite>
	UsbWrite(COMM_R12,0x0000);  //r1
     ea4:	000b883a 	mov	r5,zero
     ea8:	01007704 	movi	r4,476
     eac:	000264c0 	call	264c <UsbWrite>
	UsbWrite(COMM_R13,0x0000);  //r1
     eb0:	000b883a 	mov	r5,zero
     eb4:	01007784 	movi	r4,478
     eb8:	000264c0 	call	264c <UsbWrite>

	IO_write(HPI_MAILBOX,COMM_EXEC_INT);
     ebc:	01738054 	movui	r5,52737
     ec0:	01000044 	movi	r4,1
     ec4:	00008680 	call	868 <IO_write>

	while (IO_read(HPI_MAILBOX) != COMM_ACK)
     ec8:	0001883a 	nop
     ecc:	01000044 	movi	r4,1
     ed0:	00008f00 	call	8f0 <IO_read>
     ed4:	10bfffcc 	andi	r2,r2,65535
     ed8:	1083fb58 	cmpnei	r2,r2,4077
     edc:	10000826 	beq	r2,zero,f00 <init_keyboard+0x290>
	{
		printf("[ERROR]:routine mailbox data is %x\n",IO_read(HPI_MAILBOX));
     ee0:	01000044 	movi	r4,1
     ee4:	00008f00 	call	8f0 <IO_read>
     ee8:	10bfffcc 	andi	r2,r2,65535
     eec:	100b883a 	mov	r5,r2
     ef0:	01000074 	movhi	r4,1
     ef4:	211d0404 	addi	r4,r4,29712
     ef8:	000909c0 	call	909c <printf>
		goto USB_HOT_PLUG;
     efc:	003f6406 	br	c90 <__alt_exception_stack_pointer+0xf8000c90>
	}
	// STEP 2 end

	ctl_reg = USB1_CTL_REG;
     f00:	00b02284 	movi	r2,-16246
     f04:	d0a8eb0d 	sth	r2,-23636(gp)
	no_device = (A_DP_STAT | A_DM_STAT);
     f08:	008c0004 	movi	r2,12288
     f0c:	d0a8eb8d 	sth	r2,-23634(gp)
	fs_device = A_DP_STAT;
     f10:	00880004 	movi	r2,8192
     f14:	d0a8ec0d 	sth	r2,-23632(gp)
	usb_ctl_val = UsbRead(ctl_reg);
     f18:	d0a8eb0b 	ldhu	r2,-23636(gp)
     f1c:	10bfffcc 	andi	r2,r2,65535
     f20:	1009883a 	mov	r4,r2
     f24:	00026a40 	call	26a4 <UsbRead>
     f28:	d0a8ee8d 	sth	r2,-23622(gp)

	if (!(usb_ctl_val & no_device))
     f2c:	d0e8ee8b 	ldhu	r3,-23622(gp)
     f30:	d0a8eb8b 	ldhu	r2,-23634(gp)
     f34:	1884703a 	and	r2,r3,r2
     f38:	10bfffcc 	andi	r2,r2,65535
     f3c:	1000361e 	bne	r2,zero,1018 <init_keyboard+0x3a8>
	{
		for(hot_plug_count = 0 ; hot_plug_count < 5 ; hot_plug_count++)
     f40:	d028f005 	stb	zero,-23616(gp)
     f44:	00000f06 	br	f84 <init_keyboard+0x314>
		{
			usleep(5*1000);
     f48:	0104e204 	movi	r4,5000
     f4c:	00144a00 	call	144a0 <usleep>
			usb_ctl_val = UsbRead(ctl_reg);
     f50:	d0a8eb0b 	ldhu	r2,-23636(gp)
     f54:	10bfffcc 	andi	r2,r2,65535
     f58:	1009883a 	mov	r4,r2
     f5c:	00026a40 	call	26a4 <UsbRead>
     f60:	d0a8ee8d 	sth	r2,-23622(gp)
			if(usb_ctl_val & no_device) break;
     f64:	d0e8ee8b 	ldhu	r3,-23622(gp)
     f68:	d0a8eb8b 	ldhu	r2,-23634(gp)
     f6c:	1884703a 	and	r2,r3,r2
     f70:	10bfffcc 	andi	r2,r2,65535
     f74:	1000081e 	bne	r2,zero,f98 <init_keyboard+0x328>
	fs_device = A_DP_STAT;
	usb_ctl_val = UsbRead(ctl_reg);

	if (!(usb_ctl_val & no_device))
	{
		for(hot_plug_count = 0 ; hot_plug_count < 5 ; hot_plug_count++)
     f78:	d0a8f003 	ldbu	r2,-23616(gp)
     f7c:	10800044 	addi	r2,r2,1
     f80:	d0a8f005 	stb	r2,-23616(gp)
     f84:	d0a8f003 	ldbu	r2,-23616(gp)
     f88:	10803fcc 	andi	r2,r2,255
     f8c:	10800170 	cmpltui	r2,r2,5
     f90:	103fed1e 	bne	r2,zero,f48 <__alt_exception_stack_pointer+0xf8000f48>
     f94:	00000106 	br	f9c <init_keyboard+0x32c>
		{
			usleep(5*1000);
			usb_ctl_val = UsbRead(ctl_reg);
			if(usb_ctl_val & no_device) break;
     f98:	0001883a 	nop
		}
		if(!(usb_ctl_val & no_device))
     f9c:	d0e8ee8b 	ldhu	r3,-23622(gp)
     fa0:	d0a8eb8b 	ldhu	r2,-23634(gp)
     fa4:	1884703a 	and	r2,r3,r2
     fa8:	10bfffcc 	andi	r2,r2,65535
     fac:	1000261e 	bne	r2,zero,1048 <init_keyboard+0x3d8>
		{
			printf("\n[INFO]: no device is present in SIE1!\n");
     fb0:	01000074 	movhi	r4,1
     fb4:	211d1104 	addi	r4,r4,29764
     fb8:	00091980 	call	9198 <puts>
			printf("[INFO]: please insert a USB keyboard in SIE1!\n");
     fbc:	01000074 	movhi	r4,1
     fc0:	211d1b04 	addi	r4,r4,29804
     fc4:	00091980 	call	9198 <puts>
			while (!(usb_ctl_val & no_device))
     fc8:	00000d06 	br	1000 <init_keyboard+0x390>
			{
				usb_ctl_val = UsbRead(ctl_reg);
     fcc:	d0a8eb0b 	ldhu	r2,-23636(gp)
     fd0:	10bfffcc 	andi	r2,r2,65535
     fd4:	1009883a 	mov	r4,r2
     fd8:	00026a40 	call	26a4 <UsbRead>
     fdc:	d0a8ee8d 	sth	r2,-23622(gp)
				if(usb_ctl_val & no_device)
     fe0:	d0e8ee8b 	ldhu	r3,-23622(gp)
     fe4:	d0a8eb8b 	ldhu	r2,-23634(gp)
     fe8:	1884703a 	and	r2,r3,r2
     fec:	10bfffcc 	andi	r2,r2,65535
     ff0:	10000126 	beq	r2,zero,ff8 <init_keyboard+0x388>
					goto USB_HOT_PLUG;
     ff4:	003f2606 	br	c90 <__alt_exception_stack_pointer+0xf8000c90>

				usleep(2000);
     ff8:	0101f404 	movi	r4,2000
     ffc:	00144a00 	call	144a0 <usleep>
		}
		if(!(usb_ctl_val & no_device))
		{
			printf("\n[INFO]: no device is present in SIE1!\n");
			printf("[INFO]: please insert a USB keyboard in SIE1!\n");
			while (!(usb_ctl_val & no_device))
    1000:	d0e8ee8b 	ldhu	r3,-23622(gp)
    1004:	d0a8eb8b 	ldhu	r2,-23634(gp)
    1008:	1884703a 	and	r2,r3,r2
    100c:	10bfffcc 	andi	r2,r2,65535
    1010:	103fee26 	beq	r2,zero,fcc <__alt_exception_stack_pointer+0xf8000fcc>
    1014:	00000c06 	br	1048 <init_keyboard+0x3d8>
		}
	}
	else
	{
		/* check for low speed or full speed by reading D+ and D- lines */
		if (usb_ctl_val & fs_device)
    1018:	d0e8ee8b 	ldhu	r3,-23622(gp)
    101c:	d0a8ec0b 	ldhu	r2,-23632(gp)
    1020:	1884703a 	and	r2,r3,r2
    1024:	10bfffcc 	andi	r2,r2,65535
    1028:	10000426 	beq	r2,zero,103c <init_keyboard+0x3cc>
		{
			printf("[INFO]: full speed device\n");
    102c:	01000074 	movhi	r4,1
    1030:	211d2704 	addi	r4,r4,29852
    1034:	00091980 	call	9198 <puts>
    1038:	00000306 	br	1048 <init_keyboard+0x3d8>
		}
		else
		{
			printf("[INFO]: low speed device\n");
    103c:	01000074 	movhi	r4,1
    1040:	211d2e04 	addi	r4,r4,29880
    1044:	00091980 	call	9198 <puts>



	// STEP 3 begin
	//------------------------------------------------------set address -----------------------------------------------------------------
	UsbSetAddress();
    1048:	000279c0 	call	279c <UsbSetAddress>

	while (!(IO_read(HPI_STATUS) & HPI_STATUS_SIE1msg_FLAG) )  //read sie1 msg register
    104c:	00000306 	br	105c <init_keyboard+0x3ec>
	{
		UsbSetAddress();
    1050:	000279c0 	call	279c <UsbSetAddress>
		usleep(10*1000);
    1054:	0109c404 	movi	r4,10000
    1058:	00144a00 	call	144a0 <usleep>

	// STEP 3 begin
	//------------------------------------------------------set address -----------------------------------------------------------------
	UsbSetAddress();

	while (!(IO_read(HPI_STATUS) & HPI_STATUS_SIE1msg_FLAG) )  //read sie1 msg register
    105c:	010000c4 	movi	r4,3
    1060:	00008f00 	call	8f0 <IO_read>
    1064:	10bfffcc 	andi	r2,r2,65535
    1068:	1080040c 	andi	r2,r2,16
    106c:	103ff826 	beq	r2,zero,1050 <__alt_exception_stack_pointer+0xf8001050>
	{
		UsbSetAddress();
		usleep(10*1000);
	}

	UsbWaitTDListDone();
    1070:	000363c0 	call	363c <UsbWaitTDListDone>

	IO_write(HPI_ADDR,0x0506); // i
    1074:	01414184 	movi	r5,1286
    1078:	01000084 	movi	r4,2
    107c:	00008680 	call	868 <IO_write>
	printf("[ENUM PROCESS]:step 3 TD Status Byte is %x\n",IO_read(HPI_DATA));
    1080:	0009883a 	mov	r4,zero
    1084:	00008f00 	call	8f0 <IO_read>
    1088:	10bfffcc 	andi	r2,r2,65535
    108c:	100b883a 	mov	r5,r2
    1090:	01000074 	movhi	r4,1
    1094:	211d3504 	addi	r4,r4,29908
    1098:	000909c0 	call	909c <printf>

	IO_write(HPI_ADDR,0x0508); // n
    109c:	01414204 	movi	r5,1288
    10a0:	01000084 	movi	r4,2
    10a4:	00008680 	call	868 <IO_write>
	usb_ctl_val = IO_read(HPI_DATA);
    10a8:	0009883a 	mov	r4,zero
    10ac:	00008f00 	call	8f0 <IO_read>
    10b0:	d0a8ee8d 	sth	r2,-23622(gp)
	printf("[ENUM PROCESS]:step 3 TD Control Byte is %x\n",usb_ctl_val);
    10b4:	d0a8ee8b 	ldhu	r2,-23622(gp)
    10b8:	10bfffcc 	andi	r2,r2,65535
    10bc:	100b883a 	mov	r5,r2
    10c0:	01000074 	movhi	r4,1
    10c4:	211d4004 	addi	r4,r4,29952
    10c8:	000909c0 	call	909c <printf>
	while (usb_ctl_val != 0x03) // retries occurred
    10cc:	0001883a 	nop
    10d0:	d0a8ee8b 	ldhu	r2,-23622(gp)
    10d4:	10bfffcc 	andi	r2,r2,65535
    10d8:	108000d8 	cmpnei	r2,r2,3
    10dc:	10000326 	beq	r2,zero,10ec <init_keyboard+0x47c>
	{
		usb_ctl_val = UsbGetRetryCnt();
    10e0:	00036c00 	call	36c0 <UsbGetRetryCnt>
    10e4:	d0a8ee8d 	sth	r2,-23622(gp)

		goto USB_HOT_PLUG;
    10e8:	003ee906 	br	c90 <__alt_exception_stack_pointer+0xf8000c90>
	}

	printf("------------[ENUM PROCESS]:set address done!---------------\n");
    10ec:	01000074 	movhi	r4,1
    10f0:	211d4c04 	addi	r4,r4,30000
    10f4:	00091980 	call	9198 <puts>

	// STEP 4 begin
	//-------------------------------get device descriptor-1 -----------------------------------//
	// TASK: Call the appropriate function for this step.
	UsbGetDeviceDesc1(); 	// Get Device Descriptor -1
    10f8:	000289c0 	call	289c <UsbGetDeviceDesc1>

	usleep(10*1000);
    10fc:	0109c404 	movi	r4,10000
    1100:	00144a00 	call	144a0 <usleep>
	while (!(IO_read(HPI_STATUS) & HPI_STATUS_SIE1msg_FLAG) )  //read sie1 msg register
    1104:	00000306 	br	1114 <init_keyboard+0x4a4>
	{
		// TASK: Call the appropriate function again if it wasn't processed successfully.
		UsbGetDeviceDesc1();
    1108:	000289c0 	call	289c <UsbGetDeviceDesc1>
		usleep(10*1000);
    110c:	0109c404 	movi	r4,10000
    1110:	00144a00 	call	144a0 <usleep>
	//-------------------------------get device descriptor-1 -----------------------------------//
	// TASK: Call the appropriate function for this step.
	UsbGetDeviceDesc1(); 	// Get Device Descriptor -1

	usleep(10*1000);
	while (!(IO_read(HPI_STATUS) & HPI_STATUS_SIE1msg_FLAG) )  //read sie1 msg register
    1114:	010000c4 	movi	r4,3
    1118:	00008f00 	call	8f0 <IO_read>
    111c:	10bfffcc 	andi	r2,r2,65535
    1120:	1080040c 	andi	r2,r2,16
    1124:	103ff826 	beq	r2,zero,1108 <__alt_exception_stack_pointer+0xf8001108>
		// TASK: Call the appropriate function again if it wasn't processed successfully.
		UsbGetDeviceDesc1();
		usleep(10*1000);
	}

	UsbWaitTDListDone();
    1128:	000363c0 	call	363c <UsbWaitTDListDone>

	IO_write(HPI_ADDR,0x0506);
    112c:	01414184 	movi	r5,1286
    1130:	01000084 	movi	r4,2
    1134:	00008680 	call	868 <IO_write>
	printf("[ENUM PROCESS]:step 4 TD Status Byte is %x\n",IO_read(HPI_DATA));
    1138:	0009883a 	mov	r4,zero
    113c:	00008f00 	call	8f0 <IO_read>
    1140:	10bfffcc 	andi	r2,r2,65535
    1144:	100b883a 	mov	r5,r2
    1148:	01000074 	movhi	r4,1
    114c:	211d5b04 	addi	r4,r4,30060
    1150:	000909c0 	call	909c <printf>

	IO_write(HPI_ADDR,0x0508);
    1154:	01414204 	movi	r5,1288
    1158:	01000084 	movi	r4,2
    115c:	00008680 	call	868 <IO_write>
	usb_ctl_val = IO_read(HPI_DATA);
    1160:	0009883a 	mov	r4,zero
    1164:	00008f00 	call	8f0 <IO_read>
    1168:	d0a8ee8d 	sth	r2,-23622(gp)
	printf("[ENUM PROCESS]:step 4 TD Control Byte is %x\n",usb_ctl_val);
    116c:	d0a8ee8b 	ldhu	r2,-23622(gp)
    1170:	10bfffcc 	andi	r2,r2,65535
    1174:	100b883a 	mov	r5,r2
    1178:	01000074 	movhi	r4,1
    117c:	211d6604 	addi	r4,r4,30104
    1180:	000909c0 	call	909c <printf>
	while (usb_ctl_val != 0x03)
    1184:	0001883a 	nop
    1188:	d0a8ee8b 	ldhu	r2,-23622(gp)
    118c:	10bfffcc 	andi	r2,r2,65535
    1190:	108000d8 	cmpnei	r2,r2,3
    1194:	10000626 	beq	r2,zero,11b0 <init_keyboard+0x540>
	{
		usb_ctl_val = UsbGetRetryCnt();
    1198:	00036c00 	call	36c0 <UsbGetRetryCnt>
    119c:	d0a8ee8d 	sth	r2,-23622(gp)

		// Fatal problem; try again
		printf ("Encountered Fatal Error, restarting\n");
    11a0:	01000074 	movhi	r4,1
    11a4:	211d7204 	addi	r4,r4,30152
    11a8:	00091980 	call	9198 <puts>
		goto USB_HOT_PLUG;
    11ac:	003eb806 	br	c90 <__alt_exception_stack_pointer+0xf8000c90>
	}

	printf("---------------[ENUM PROCESS]:get device descriptor-1 done!-----------------\n");
    11b0:	01000074 	movhi	r4,1
    11b4:	211d7b04 	addi	r4,r4,30188
    11b8:	00091980 	call	9198 <puts>


	//--------------------------------get device descriptor-2---------------------------------------------//
	//get device descriptor
	// TASK: Call the appropriate function for this step.
	UsbGetDeviceDesc2(); 	// Get Device Descriptor -2
    11bc:	00029e40 	call	29e4 <UsbGetDeviceDesc2>

	//if no message
	while (!(IO_read(HPI_STATUS) & HPI_STATUS_SIE1msg_FLAG) )  //read sie1 msg register
    11c0:	00000306 	br	11d0 <init_keyboard+0x560>
	{
		//resend the get device descriptor
		//get device descriptor
		// TASK: Call the appropriate function again if it wasn't processed successfully.
		UsbGetDeviceDesc2();
    11c4:	00029e40 	call	29e4 <UsbGetDeviceDesc2>
		usleep(10*1000);
    11c8:	0109c404 	movi	r4,10000
    11cc:	00144a00 	call	144a0 <usleep>
	//get device descriptor
	// TASK: Call the appropriate function for this step.
	UsbGetDeviceDesc2(); 	// Get Device Descriptor -2

	//if no message
	while (!(IO_read(HPI_STATUS) & HPI_STATUS_SIE1msg_FLAG) )  //read sie1 msg register
    11d0:	010000c4 	movi	r4,3
    11d4:	00008f00 	call	8f0 <IO_read>
    11d8:	10bfffcc 	andi	r2,r2,65535
    11dc:	1080040c 	andi	r2,r2,16
    11e0:	103ff826 	beq	r2,zero,11c4 <__alt_exception_stack_pointer+0xf80011c4>
		// TASK: Call the appropriate function again if it wasn't processed successfully.
		UsbGetDeviceDesc2();
		usleep(10*1000);
	}

	UsbWaitTDListDone();
    11e4:	000363c0 	call	363c <UsbWaitTDListDone>

	IO_write(HPI_ADDR,0x0506);
    11e8:	01414184 	movi	r5,1286
    11ec:	01000084 	movi	r4,2
    11f0:	00008680 	call	868 <IO_write>
	printf("[ENUM PROCESS]:step 4 TD Status Byte is %x\n",IO_read(HPI_DATA));
    11f4:	0009883a 	mov	r4,zero
    11f8:	00008f00 	call	8f0 <IO_read>
    11fc:	10bfffcc 	andi	r2,r2,65535
    1200:	100b883a 	mov	r5,r2
    1204:	01000074 	movhi	r4,1
    1208:	211d5b04 	addi	r4,r4,30060
    120c:	000909c0 	call	909c <printf>

	IO_write(HPI_ADDR,0x0508);
    1210:	01414204 	movi	r5,1288
    1214:	01000084 	movi	r4,2
    1218:	00008680 	call	868 <IO_write>
	usb_ctl_val = IO_read(HPI_DATA);
    121c:	0009883a 	mov	r4,zero
    1220:	00008f00 	call	8f0 <IO_read>
    1224:	d0a8ee8d 	sth	r2,-23622(gp)
	printf("[ENUM PROCESS]:step 4 TD Control Byte is %x\n",usb_ctl_val);
    1228:	d0a8ee8b 	ldhu	r2,-23622(gp)
    122c:	10bfffcc 	andi	r2,r2,65535
    1230:	100b883a 	mov	r5,r2
    1234:	01000074 	movhi	r4,1
    1238:	211d6604 	addi	r4,r4,30104
    123c:	000909c0 	call	909c <printf>
	while (usb_ctl_val != 0x03)
    1240:	0001883a 	nop
    1244:	d0a8ee8b 	ldhu	r2,-23622(gp)
    1248:	10bfffcc 	andi	r2,r2,65535
    124c:	108000d8 	cmpnei	r2,r2,3
    1250:	10000626 	beq	r2,zero,126c <init_keyboard+0x5fc>
	{
		usb_ctl_val = UsbGetRetryCnt();
    1254:	00036c00 	call	36c0 <UsbGetRetryCnt>
    1258:	d0a8ee8d 	sth	r2,-23622(gp)

		// Fatal problem; try again
		printf ("Encountered Fatal Error, restarting\n");
    125c:	01000074 	movhi	r4,1
    1260:	211d7204 	addi	r4,r4,30152
    1264:	00091980 	call	9198 <puts>
		goto USB_HOT_PLUG;
    1268:	003e8906 	br	c90 <__alt_exception_stack_pointer+0xf8000c90>
	}

	printf("------------[ENUM PROCESS]:get device descriptor-2 done!--------------\n");
    126c:	01000074 	movhi	r4,1
    1270:	211d8f04 	addi	r4,r4,30268
    1274:	00091980 	call	9198 <puts>


	// STEP 5 begin
	//-----------------------------------get configuration descriptor -1 ----------------------------------//
	// TASK: Call the appropriate function for this step.
	UsbGetConfigDesc1(); 	// Get Configuration Descriptor -1
    1278:	0002bbc0 	call	2bbc <UsbGetConfigDesc1>

	//if no message
	while (!(IO_read(HPI_STATUS) & HPI_STATUS_SIE1msg_FLAG) )  //read sie1 msg register
    127c:	00000306 	br	128c <init_keyboard+0x61c>
	{
		//resend the get device descriptor
		//get device descriptor

		// TASK: Call the appropriate function again if it wasn't processed successfully.
		UsbGetConfigDesc1();
    1280:	0002bbc0 	call	2bbc <UsbGetConfigDesc1>
		usleep(10*1000);
    1284:	0109c404 	movi	r4,10000
    1288:	00144a00 	call	144a0 <usleep>
	//-----------------------------------get configuration descriptor -1 ----------------------------------//
	// TASK: Call the appropriate function for this step.
	UsbGetConfigDesc1(); 	// Get Configuration Descriptor -1

	//if no message
	while (!(IO_read(HPI_STATUS) & HPI_STATUS_SIE1msg_FLAG) )  //read sie1 msg register
    128c:	010000c4 	movi	r4,3
    1290:	00008f00 	call	8f0 <IO_read>
    1294:	10bfffcc 	andi	r2,r2,65535
    1298:	1080040c 	andi	r2,r2,16
    129c:	103ff826 	beq	r2,zero,1280 <__alt_exception_stack_pointer+0xf8001280>
		// TASK: Call the appropriate function again if it wasn't processed successfully.
		UsbGetConfigDesc1();
		usleep(10*1000);
	}

	UsbWaitTDListDone();
    12a0:	000363c0 	call	363c <UsbWaitTDListDone>

	IO_write(HPI_ADDR,0x0506);
    12a4:	01414184 	movi	r5,1286
    12a8:	01000084 	movi	r4,2
    12ac:	00008680 	call	868 <IO_write>
	printf("[ENUM PROCESS]:step 5 TD Status Byte is %x\n",IO_read(HPI_DATA));
    12b0:	0009883a 	mov	r4,zero
    12b4:	00008f00 	call	8f0 <IO_read>
    12b8:	10bfffcc 	andi	r2,r2,65535
    12bc:	100b883a 	mov	r5,r2
    12c0:	01000074 	movhi	r4,1
    12c4:	211da104 	addi	r4,r4,30340
    12c8:	000909c0 	call	909c <printf>

	IO_write(HPI_ADDR,0x0508);
    12cc:	01414204 	movi	r5,1288
    12d0:	01000084 	movi	r4,2
    12d4:	00008680 	call	868 <IO_write>
	usb_ctl_val = IO_read(HPI_DATA);
    12d8:	0009883a 	mov	r4,zero
    12dc:	00008f00 	call	8f0 <IO_read>
    12e0:	d0a8ee8d 	sth	r2,-23622(gp)
	printf("[ENUM PROCESS]:step 5 TD Control Byte is %x\n",usb_ctl_val);
    12e4:	d0a8ee8b 	ldhu	r2,-23622(gp)
    12e8:	10bfffcc 	andi	r2,r2,65535
    12ec:	100b883a 	mov	r5,r2
    12f0:	01000074 	movhi	r4,1
    12f4:	211dac04 	addi	r4,r4,30384
    12f8:	000909c0 	call	909c <printf>
	while (usb_ctl_val != 0x03)
    12fc:	0001883a 	nop
    1300:	d0a8ee8b 	ldhu	r2,-23622(gp)
    1304:	10bfffcc 	andi	r2,r2,65535
    1308:	108000d8 	cmpnei	r2,r2,3
    130c:	10000626 	beq	r2,zero,1328 <init_keyboard+0x6b8>
	{
		usb_ctl_val = UsbGetRetryCnt();
    1310:	00036c00 	call	36c0 <UsbGetRetryCnt>
    1314:	d0a8ee8d 	sth	r2,-23622(gp)

		// Fatal problem; try again
		printf ("Encountered Fatal Error, restarting\n");
    1318:	01000074 	movhi	r4,1
    131c:	211d7204 	addi	r4,r4,30152
    1320:	00091980 	call	9198 <puts>
		goto USB_HOT_PLUG;
    1324:	003e5a06 	br	c90 <__alt_exception_stack_pointer+0xf8000c90>
	}
	printf("------------[ENUM PROCESS]:get configuration descriptor-1 pass------------\n");
    1328:	01000074 	movhi	r4,1
    132c:	211db804 	addi	r4,r4,30432
    1330:	00091980 	call	9198 <puts>

	// STEP 6 begin
	//-----------------------------------get configuration descriptor-2------------------------------------//
	//get device descriptor
	// TASK: Call the appropriate function for this step.
	UsbGetConfigDesc2(); 	// Get Configuration Descriptor -2
    1334:	0002d4c0 	call	2d4c <UsbGetConfigDesc2>

	usleep(100*1000);
    1338:	010000b4 	movhi	r4,2
    133c:	2121a804 	addi	r4,r4,-31072
    1340:	00144a00 	call	144a0 <usleep>
	//if no message
	while (!(IO_read(HPI_STATUS) & HPI_STATUS_SIE1msg_FLAG) )  //read sie1 msg register
    1344:	00000306 	br	1354 <init_keyboard+0x6e4>
	{
		// TASK: Call the appropriate function again if it wasn't processed successfully.
		UsbGetConfigDesc2();
    1348:	0002d4c0 	call	2d4c <UsbGetConfigDesc2>
		usleep(10*1000);
    134c:	0109c404 	movi	r4,10000
    1350:	00144a00 	call	144a0 <usleep>
	// TASK: Call the appropriate function for this step.
	UsbGetConfigDesc2(); 	// Get Configuration Descriptor -2

	usleep(100*1000);
	//if no message
	while (!(IO_read(HPI_STATUS) & HPI_STATUS_SIE1msg_FLAG) )  //read sie1 msg register
    1354:	010000c4 	movi	r4,3
    1358:	00008f00 	call	8f0 <IO_read>
    135c:	10bfffcc 	andi	r2,r2,65535
    1360:	1080040c 	andi	r2,r2,16
    1364:	103ff826 	beq	r2,zero,1348 <__alt_exception_stack_pointer+0xf8001348>
		// TASK: Call the appropriate function again if it wasn't processed successfully.
		UsbGetConfigDesc2();
		usleep(10*1000);
	}

	UsbWaitTDListDone();
    1368:	000363c0 	call	363c <UsbWaitTDListDone>

	IO_write(HPI_ADDR,0x0506);
    136c:	01414184 	movi	r5,1286
    1370:	01000084 	movi	r4,2
    1374:	00008680 	call	868 <IO_write>
	printf("[ENUM PROCESS]:step 6 TD Status Byte is %x\n",IO_read(HPI_DATA));
    1378:	0009883a 	mov	r4,zero
    137c:	00008f00 	call	8f0 <IO_read>
    1380:	10bfffcc 	andi	r2,r2,65535
    1384:	100b883a 	mov	r5,r2
    1388:	01000074 	movhi	r4,1
    138c:	211dcb04 	addi	r4,r4,30508
    1390:	000909c0 	call	909c <printf>

	IO_write(HPI_ADDR,0x0508);
    1394:	01414204 	movi	r5,1288
    1398:	01000084 	movi	r4,2
    139c:	00008680 	call	868 <IO_write>
	usb_ctl_val = IO_read(HPI_DATA);
    13a0:	0009883a 	mov	r4,zero
    13a4:	00008f00 	call	8f0 <IO_read>
    13a8:	d0a8ee8d 	sth	r2,-23622(gp)
	printf("[ENUM PROCESS]:step 6 TD Control Byte is %x\n",usb_ctl_val);
    13ac:	d0a8ee8b 	ldhu	r2,-23622(gp)
    13b0:	10bfffcc 	andi	r2,r2,65535
    13b4:	100b883a 	mov	r5,r2
    13b8:	01000074 	movhi	r4,1
    13bc:	211dd604 	addi	r4,r4,30552
    13c0:	000909c0 	call	909c <printf>
	while (usb_ctl_val != 0x03)
    13c4:	0001883a 	nop
    13c8:	d0a8ee8b 	ldhu	r2,-23622(gp)
    13cc:	10bfffcc 	andi	r2,r2,65535
    13d0:	108000d8 	cmpnei	r2,r2,3
    13d4:	10000626 	beq	r2,zero,13f0 <init_keyboard+0x780>
	{
		usb_ctl_val = UsbGetRetryCnt();
    13d8:	00036c00 	call	36c0 <UsbGetRetryCnt>
    13dc:	d0a8ee8d 	sth	r2,-23622(gp)

		// Fatal problem; try again
		printf ("Encountered Fatal Error, restarting\n");
    13e0:	01000074 	movhi	r4,1
    13e4:	211d7204 	addi	r4,r4,30152
    13e8:	00091980 	call	9198 <puts>
		goto USB_HOT_PLUG;
    13ec:	003e2806 	br	c90 <__alt_exception_stack_pointer+0xf8000c90>
	}


	printf("-----------[ENUM PROCESS]:get configuration descriptor-2 done!------------\n");
    13f0:	01000074 	movhi	r4,1
    13f4:	211de204 	addi	r4,r4,30600
    13f8:	00091980 	call	9198 <puts>


	// ---------------------------------get device info---------------------------------------------//

	// TASK: Write the address to read from the memory for byte 7 of the interface descriptor to HPI_ADDR.
	IO_write(HPI_ADDR,0x056c);
    13fc:	01415b04 	movi	r5,1388
    1400:	01000084 	movi	r4,2
    1404:	00008680 	call	868 <IO_write>
	code = IO_read(HPI_DATA);
    1408:	0009883a 	mov	r4,zero
    140c:	00008f00 	call	8f0 <IO_read>
    1410:	d0a8f08d 	sth	r2,-23614(gp)
	code = code & 0x003;
    1414:	d0a8f08b 	ldhu	r2,-23614(gp)
    1418:	108000cc 	andi	r2,r2,3
    141c:	d0a8f08d 	sth	r2,-23614(gp)
	printf("\ncode = %x\n", code);
    1420:	d0a8f08b 	ldhu	r2,-23614(gp)
    1424:	10bfffcc 	andi	r2,r2,65535
    1428:	100b883a 	mov	r5,r2
    142c:	01000074 	movhi	r4,1
    1430:	211df504 	addi	r4,r4,30676
    1434:	000909c0 	call	909c <printf>

	if (code == 0x01)
    1438:	d0a8f08b 	ldhu	r2,-23614(gp)
    143c:	10bfffcc 	andi	r2,r2,65535
    1440:	10800058 	cmpnei	r2,r2,1
    1444:	1000041e 	bne	r2,zero,1458 <init_keyboard+0x7e8>
	{
		printf("\n[INFO]:check TD rec data7 \n[INFO]:Keyboard Detected!!!\n\n");
    1448:	01000074 	movhi	r4,1
    144c:	211df804 	addi	r4,r4,30688
    1450:	00091980 	call	9198 <puts>
    1454:	00000306 	br	1464 <init_keyboard+0x7f4>
	}
	else
	{
		printf("\n[INFO]:Keyboard Not Detected!!! \n\n");
    1458:	01000074 	movhi	r4,1
    145c:	211e0704 	addi	r4,r4,30748
    1460:	00091980 	call	9198 <puts>
	}

	// TASK: Write the address to read from the memory for the endpoint descriptor to HPI_ADDR.

	IO_write(HPI_ADDR,0x0576);
    1464:	01415d84 	movi	r5,1398
    1468:	01000084 	movi	r4,2
    146c:	00008680 	call	868 <IO_write>
	IO_write(HPI_DATA,0x073F);
    1470:	0141cfc4 	movi	r5,1855
    1474:	0009883a 	mov	r4,zero
    1478:	00008680 	call	868 <IO_write>
	IO_write(HPI_DATA,0x8105);
    147c:	01604154 	movui	r5,33029
    1480:	0009883a 	mov	r4,zero
    1484:	00008680 	call	868 <IO_write>
	IO_write(HPI_DATA,0x0003);
    1488:	014000c4 	movi	r5,3
    148c:	0009883a 	mov	r4,zero
    1490:	00008680 	call	868 <IO_write>
	IO_write(HPI_DATA,0x0008);
    1494:	01400204 	movi	r5,8
    1498:	0009883a 	mov	r4,zero
    149c:	00008680 	call	868 <IO_write>
	IO_write(HPI_DATA,0xAC0A);
    14a0:	016b0294 	movui	r5,44042
    14a4:	0009883a 	mov	r4,zero
    14a8:	00008680 	call	868 <IO_write>
	UsbWrite(HUSB_SIE1_pCurrentTDPtr,0x0576); //HUSB_SIE1_pCurrentTDPtr
    14ac:	01415d84 	movi	r5,1398
    14b0:	01006c04 	movi	r4,432
    14b4:	000264c0 	call	264c <UsbWrite>

	//data_size = (IO_read(HPI_DATA)>>8)&0x0ff;
	//data_size = 0x08;//(IO_read(HPI_DATA))&0x0ff;
	//UsbPrintMem();
	IO_write(HPI_ADDR,0x057c);
    14b8:	01415f04 	movi	r5,1404
    14bc:	01000084 	movi	r4,2
    14c0:	00008680 	call	868 <IO_write>
	data_size = (IO_read(HPI_DATA))&0x0ff;
    14c4:	0009883a 	mov	r4,zero
    14c8:	00008f00 	call	8f0 <IO_read>
    14cc:	d0a8ef05 	stb	r2,-23620(gp)
	printf("[ENUM PROCESS]:data packet size is %d\n",data_size);
    14d0:	d0a8ef03 	ldbu	r2,-23620(gp)
    14d4:	10803fcc 	andi	r2,r2,255
    14d8:	100b883a 	mov	r5,r2
    14dc:	01000074 	movhi	r4,1
    14e0:	211e1004 	addi	r4,r4,30784
    14e4:	000909c0 	call	909c <printf>
	// STEP 7 begin
	//------------------------------------set configuration -----------------------------------------//
	// TASK: Call the appropriate function for this step.
	UsbSetConfig();		// Set Configuration
    14e8:	0002fb40 	call	2fb4 <UsbSetConfig>

	while (!(IO_read(HPI_STATUS) & HPI_STATUS_SIE1msg_FLAG) )  //read sie1 msg register
    14ec:	00000306 	br	14fc <init_keyboard+0x88c>
	{
		// TASK: Call the appropriate function again if it wasn't processed successfully.
		UsbSetConfig();		// Set Configuration
    14f0:	0002fb40 	call	2fb4 <UsbSetConfig>
		usleep(10*1000);
    14f4:	0109c404 	movi	r4,10000
    14f8:	00144a00 	call	144a0 <usleep>
	// STEP 7 begin
	//------------------------------------set configuration -----------------------------------------//
	// TASK: Call the appropriate function for this step.
	UsbSetConfig();		// Set Configuration

	while (!(IO_read(HPI_STATUS) & HPI_STATUS_SIE1msg_FLAG) )  //read sie1 msg register
    14fc:	010000c4 	movi	r4,3
    1500:	00008f00 	call	8f0 <IO_read>
    1504:	10bfffcc 	andi	r2,r2,65535
    1508:	1080040c 	andi	r2,r2,16
    150c:	103ff826 	beq	r2,zero,14f0 <__alt_exception_stack_pointer+0xf80014f0>
		// TASK: Call the appropriate function again if it wasn't processed successfully.
		UsbSetConfig();		// Set Configuration
		usleep(10*1000);
	}

	UsbWaitTDListDone();
    1510:	000363c0 	call	363c <UsbWaitTDListDone>

	IO_write(HPI_ADDR,0x0506);
    1514:	01414184 	movi	r5,1286
    1518:	01000084 	movi	r4,2
    151c:	00008680 	call	868 <IO_write>
	printf("[ENUM PROCESS]:step 7 TD Status Byte is %x\n",IO_read(HPI_DATA));
    1520:	0009883a 	mov	r4,zero
    1524:	00008f00 	call	8f0 <IO_read>
    1528:	10bfffcc 	andi	r2,r2,65535
    152c:	100b883a 	mov	r5,r2
    1530:	01000074 	movhi	r4,1
    1534:	211e1a04 	addi	r4,r4,30824
    1538:	000909c0 	call	909c <printf>

	IO_write(HPI_ADDR,0x0508);
    153c:	01414204 	movi	r5,1288
    1540:	01000084 	movi	r4,2
    1544:	00008680 	call	868 <IO_write>
	usb_ctl_val = IO_read(HPI_DATA);
    1548:	0009883a 	mov	r4,zero
    154c:	00008f00 	call	8f0 <IO_read>
    1550:	d0a8ee8d 	sth	r2,-23622(gp)
	printf("[ENUM PROCESS]:step 7 TD Control Byte is %x\n",usb_ctl_val);
    1554:	d0a8ee8b 	ldhu	r2,-23622(gp)
    1558:	10bfffcc 	andi	r2,r2,65535
    155c:	100b883a 	mov	r5,r2
    1560:	01000074 	movhi	r4,1
    1564:	211e2504 	addi	r4,r4,30868
    1568:	000909c0 	call	909c <printf>
	while (usb_ctl_val != 0x03)
    156c:	0001883a 	nop
    1570:	d0a8ee8b 	ldhu	r2,-23622(gp)
    1574:	10bfffcc 	andi	r2,r2,65535
    1578:	108000d8 	cmpnei	r2,r2,3
    157c:	10000626 	beq	r2,zero,1598 <init_keyboard+0x928>
	{
		usb_ctl_val = UsbGetRetryCnt();
    1580:	00036c00 	call	36c0 <UsbGetRetryCnt>
    1584:	d0a8ee8d 	sth	r2,-23622(gp)

		// Fatal problem; try again
		printf ("Encountered Fatal Error, restarting\n");
    1588:	01000074 	movhi	r4,1
    158c:	211d7204 	addi	r4,r4,30152
    1590:	00091980 	call	9198 <puts>
		goto USB_HOT_PLUG;
    1594:	003dbe06 	br	c90 <__alt_exception_stack_pointer+0xf8000c90>
	}

	printf("------------[ENUM PROCESS]:set configuration done!-------------------\n");
    1598:	01000074 	movhi	r4,1
    159c:	211e3104 	addi	r4,r4,30916
    15a0:	00091980 	call	9198 <puts>

	//----------------------------------------------class request out ------------------------------------------//
	// TASK: Call the appropriate function for this step.
	UsbClassRequest();
    15a4:	00030b40 	call	30b4 <UsbClassRequest>

	while (!(IO_read(HPI_STATUS) & HPI_STATUS_SIE1msg_FLAG) )  //read sie1 msg register
    15a8:	00000306 	br	15b8 <init_keyboard+0x948>
	{
		// TASK: Call the appropriate function again if it wasn't processed successfully.
		UsbClassRequest();
    15ac:	00030b40 	call	30b4 <UsbClassRequest>
		usleep(10*1000);
    15b0:	0109c404 	movi	r4,10000
    15b4:	00144a00 	call	144a0 <usleep>

	//----------------------------------------------class request out ------------------------------------------//
	// TASK: Call the appropriate function for this step.
	UsbClassRequest();

	while (!(IO_read(HPI_STATUS) & HPI_STATUS_SIE1msg_FLAG) )  //read sie1 msg register
    15b8:	010000c4 	movi	r4,3
    15bc:	00008f00 	call	8f0 <IO_read>
    15c0:	10bfffcc 	andi	r2,r2,65535
    15c4:	1080040c 	andi	r2,r2,16
    15c8:	103ff826 	beq	r2,zero,15ac <__alt_exception_stack_pointer+0xf80015ac>
		// TASK: Call the appropriate function again if it wasn't processed successfully.
		UsbClassRequest();
		usleep(10*1000);
	}

	UsbWaitTDListDone();
    15cc:	000363c0 	call	363c <UsbWaitTDListDone>

	IO_write(HPI_ADDR,0x0506);
    15d0:	01414184 	movi	r5,1286
    15d4:	01000084 	movi	r4,2
    15d8:	00008680 	call	868 <IO_write>
	printf("[ENUM PROCESS]:step 8 TD Status Byte is %x\n",IO_read(HPI_DATA));
    15dc:	0009883a 	mov	r4,zero
    15e0:	00008f00 	call	8f0 <IO_read>
    15e4:	10bfffcc 	andi	r2,r2,65535
    15e8:	100b883a 	mov	r5,r2
    15ec:	01000074 	movhi	r4,1
    15f0:	211e4304 	addi	r4,r4,30988
    15f4:	000909c0 	call	909c <printf>

	IO_write(HPI_ADDR,0x0508);
    15f8:	01414204 	movi	r5,1288
    15fc:	01000084 	movi	r4,2
    1600:	00008680 	call	868 <IO_write>
	usb_ctl_val = IO_read(HPI_DATA);
    1604:	0009883a 	mov	r4,zero
    1608:	00008f00 	call	8f0 <IO_read>
    160c:	d0a8ee8d 	sth	r2,-23622(gp)
	printf("[ENUM PROCESS]:step 8 TD Control Byte is %x\n",usb_ctl_val);
    1610:	d0a8ee8b 	ldhu	r2,-23622(gp)
    1614:	10bfffcc 	andi	r2,r2,65535
    1618:	100b883a 	mov	r5,r2
    161c:	01000074 	movhi	r4,1
    1620:	211e4e04 	addi	r4,r4,31032
    1624:	000909c0 	call	909c <printf>
	while (usb_ctl_val != 0x03)
    1628:	0001883a 	nop
    162c:	d0a8ee8b 	ldhu	r2,-23622(gp)
    1630:	10bfffcc 	andi	r2,r2,65535
    1634:	108000d8 	cmpnei	r2,r2,3
    1638:	10000626 	beq	r2,zero,1654 <init_keyboard+0x9e4>
	{
		usb_ctl_val = UsbGetRetryCnt();
    163c:	00036c00 	call	36c0 <UsbGetRetryCnt>
    1640:	d0a8ee8d 	sth	r2,-23622(gp)

		// Fatal problem; try again
		printf ("Encountered Fatal Error, restarting\n");
    1644:	01000074 	movhi	r4,1
    1648:	211d7204 	addi	r4,r4,30152
    164c:	00091980 	call	9198 <puts>
		goto USB_HOT_PLUG;
    1650:	003d8f06 	br	c90 <__alt_exception_stack_pointer+0xf8000c90>
	}


	printf("------------[ENUM PROCESS]:class request out done!-------------------\n");
    1654:	01000074 	movhi	r4,1
    1658:	211e5a04 	addi	r4,r4,31080
    165c:	00091980 	call	9198 <puts>

	// STEP 8 begin
	//----------------------------------get descriptor(class 0x21 = HID) request out --------------------------------//
	// TASK: Call the appropriate function for this step.
	UsbGetHidDesc();
    1660:	00031b40 	call	31b4 <UsbGetHidDesc>

	while (!(IO_read(HPI_STATUS) & HPI_STATUS_SIE1msg_FLAG) )  //read sie1 msg register
    1664:	00000306 	br	1674 <init_keyboard+0xa04>
	{
		// TASK: Call the appropriate function again if it wasn't processed successfully.
		UsbGetHidDesc();
    1668:	00031b40 	call	31b4 <UsbGetHidDesc>
		usleep(10*1000);
    166c:	0109c404 	movi	r4,10000
    1670:	00144a00 	call	144a0 <usleep>
	// STEP 8 begin
	//----------------------------------get descriptor(class 0x21 = HID) request out --------------------------------//
	// TASK: Call the appropriate function for this step.
	UsbGetHidDesc();

	while (!(IO_read(HPI_STATUS) & HPI_STATUS_SIE1msg_FLAG) )  //read sie1 msg register
    1674:	010000c4 	movi	r4,3
    1678:	00008f00 	call	8f0 <IO_read>
    167c:	10bfffcc 	andi	r2,r2,65535
    1680:	1080040c 	andi	r2,r2,16
    1684:	103ff826 	beq	r2,zero,1668 <__alt_exception_stack_pointer+0xf8001668>
		// TASK: Call the appropriate function again if it wasn't processed successfully.
		UsbGetHidDesc();
		usleep(10*1000);
	}

	UsbWaitTDListDone();
    1688:	000363c0 	call	363c <UsbWaitTDListDone>

	IO_write(HPI_ADDR,0x0506);
    168c:	01414184 	movi	r5,1286
    1690:	01000084 	movi	r4,2
    1694:	00008680 	call	868 <IO_write>
	printf("[ENUM PROCESS]:step 8 TD Status Byte is %x\n",IO_read(HPI_DATA));
    1698:	0009883a 	mov	r4,zero
    169c:	00008f00 	call	8f0 <IO_read>
    16a0:	10bfffcc 	andi	r2,r2,65535
    16a4:	100b883a 	mov	r5,r2
    16a8:	01000074 	movhi	r4,1
    16ac:	211e4304 	addi	r4,r4,30988
    16b0:	000909c0 	call	909c <printf>

	IO_write(HPI_ADDR,0x0508);
    16b4:	01414204 	movi	r5,1288
    16b8:	01000084 	movi	r4,2
    16bc:	00008680 	call	868 <IO_write>
	usb_ctl_val = IO_read(HPI_DATA);
    16c0:	0009883a 	mov	r4,zero
    16c4:	00008f00 	call	8f0 <IO_read>
    16c8:	d0a8ee8d 	sth	r2,-23622(gp)
	printf("[ENUM PROCESS]:step 8 TD Control Byte is %x\n",usb_ctl_val);
    16cc:	d0a8ee8b 	ldhu	r2,-23622(gp)
    16d0:	10bfffcc 	andi	r2,r2,65535
    16d4:	100b883a 	mov	r5,r2
    16d8:	01000074 	movhi	r4,1
    16dc:	211e4e04 	addi	r4,r4,31032
    16e0:	000909c0 	call	909c <printf>
	while (usb_ctl_val != 0x03)
    16e4:	0001883a 	nop
    16e8:	d0a8ee8b 	ldhu	r2,-23622(gp)
    16ec:	10bfffcc 	andi	r2,r2,65535
    16f0:	108000d8 	cmpnei	r2,r2,3
    16f4:	10000626 	beq	r2,zero,1710 <init_keyboard+0xaa0>
	{
		usb_ctl_val = UsbGetRetryCnt();
    16f8:	00036c00 	call	36c0 <UsbGetRetryCnt>
    16fc:	d0a8ee8d 	sth	r2,-23622(gp)

		// Fatal problem; try again
		printf ("Encountered Fatal Error, restarting\n");
    1700:	01000074 	movhi	r4,1
    1704:	211d7204 	addi	r4,r4,30152
    1708:	00091980 	call	9198 <puts>
		goto USB_HOT_PLUG;
    170c:	003d6006 	br	c90 <__alt_exception_stack_pointer+0xf8000c90>
	}

	printf("------------[ENUM PROCESS]:get descriptor (class 0x21) done!-------------------\n");
    1710:	01000074 	movhi	r4,1
    1714:	211e6c04 	addi	r4,r4,31152
    1718:	00091980 	call	9198 <puts>

	// STEP 9 begin
	//-------------------------------get descriptor (class 0x22 = report)-------------------------------------------//
	// TASK: Call the appropriate function for this step.
	UsbGetReportDesc();
    171c:	00032fc0 	call	32fc <UsbGetReportDesc>
	//if no message
	while (!(IO_read(HPI_STATUS) & HPI_STATUS_SIE1msg_FLAG) )  //read sie1 msg register
    1720:	00000106 	br	1728 <init_keyboard+0xab8>
	{
		// TASK: Call the appropriate function again if it wasn't processed successfully.
		UsbGetReportDesc();
    1724:	00032fc0 	call	32fc <UsbGetReportDesc>
	// STEP 9 begin
	//-------------------------------get descriptor (class 0x22 = report)-------------------------------------------//
	// TASK: Call the appropriate function for this step.
	UsbGetReportDesc();
	//if no message
	while (!(IO_read(HPI_STATUS) & HPI_STATUS_SIE1msg_FLAG) )  //read sie1 msg register
    1728:	010000c4 	movi	r4,3
    172c:	00008f00 	call	8f0 <IO_read>
    1730:	10bfffcc 	andi	r2,r2,65535
    1734:	1080040c 	andi	r2,r2,16
    1738:	103ffa26 	beq	r2,zero,1724 <__alt_exception_stack_pointer+0xf8001724>
		// TASK: Call the appropriate function again if it wasn't processed successfully.
		UsbGetReportDesc();
		//usleep(10*1000);
	}

	UsbWaitTDListDone();
    173c:	000363c0 	call	363c <UsbWaitTDListDone>

	IO_write(HPI_ADDR,0x0506);
    1740:	01414184 	movi	r5,1286
    1744:	01000084 	movi	r4,2
    1748:	00008680 	call	868 <IO_write>
	printf("[ENUM PROCESS]: step 9 TD Status Byte is %x\n",IO_read(HPI_DATA));
    174c:	0009883a 	mov	r4,zero
    1750:	00008f00 	call	8f0 <IO_read>
    1754:	10bfffcc 	andi	r2,r2,65535
    1758:	100b883a 	mov	r5,r2
    175c:	01000074 	movhi	r4,1
    1760:	211e8004 	addi	r4,r4,31232
    1764:	000909c0 	call	909c <printf>

	IO_write(HPI_ADDR,0x0508);
    1768:	01414204 	movi	r5,1288
    176c:	01000084 	movi	r4,2
    1770:	00008680 	call	868 <IO_write>
	usb_ctl_val = IO_read(HPI_DATA);
    1774:	0009883a 	mov	r4,zero
    1778:	00008f00 	call	8f0 <IO_read>
    177c:	d0a8ee8d 	sth	r2,-23622(gp)
	printf("[ENUM PROCESS]: step 9 TD Control Byte is %x\n",usb_ctl_val);
    1780:	d0a8ee8b 	ldhu	r2,-23622(gp)
    1784:	10bfffcc 	andi	r2,r2,65535
    1788:	100b883a 	mov	r5,r2
    178c:	01000074 	movhi	r4,1
    1790:	211e8c04 	addi	r4,r4,31280
    1794:	000909c0 	call	909c <printf>
	while (usb_ctl_val != 0x03)
    1798:	0001883a 	nop
    179c:	d0a8ee8b 	ldhu	r2,-23622(gp)
    17a0:	10bfffcc 	andi	r2,r2,65535
    17a4:	108000d8 	cmpnei	r2,r2,3
    17a8:	10000626 	beq	r2,zero,17c4 <init_keyboard+0xb54>
	{
		usb_ctl_val = UsbGetRetryCnt();
    17ac:	00036c00 	call	36c0 <UsbGetRetryCnt>
    17b0:	d0a8ee8d 	sth	r2,-23622(gp)

		// Fatal problem; try again
		printf ("Encountered Fatal Error, restarting\n");
    17b4:	01000074 	movhi	r4,1
    17b8:	211d7204 	addi	r4,r4,30152
    17bc:	00091980 	call	9198 <puts>
		goto USB_HOT_PLUG;
    17c0:	003d3306 	br	c90 <__alt_exception_stack_pointer+0xf8000c90>
	}

	printf("---------------[ENUM PROCESS]:get descriptor (class 0x22) done!----------------\n");
    17c4:	01000074 	movhi	r4,1
    17c8:	211e9804 	addi	r4,r4,31328
    17cc:	00091980 	call	9198 <puts>


}
    17d0:	0001883a 	nop
    17d4:	e037883a 	mov	sp,fp
    17d8:	dfc00117 	ldw	ra,4(sp)
    17dc:	df000017 	ldw	fp,0(sp)
    17e0:	dec00204 	addi	sp,sp,8
    17e4:	f800283a 	ret

000017e8 <alt_dma_txchan_send>:
static ALT_INLINE int alt_dma_txchan_send (alt_dma_txchan dma, 
             const void* from, 
             alt_u32 length,
             alt_txchan_done* done, 
             void* handle)
{
    17e8:	defff904 	addi	sp,sp,-28
    17ec:	dfc00615 	stw	ra,24(sp)
    17f0:	df000515 	stw	fp,20(sp)
    17f4:	df000504 	addi	fp,sp,20
    17f8:	e13ffc15 	stw	r4,-16(fp)
    17fc:	e17ffd15 	stw	r5,-12(fp)
    1800:	e1bffe15 	stw	r6,-8(fp)
    1804:	e1ffff15 	stw	r7,-4(fp)
  return dma ? dma->dma_send (dma, 
        from, 
        length,
        done, 
        handle) : -ENODEV;
    1808:	e0bffc17 	ldw	r2,-16(fp)
    180c:	10000a26 	beq	r2,zero,1838 <alt_dma_txchan_send+0x50>
             const void* from, 
             alt_u32 length,
             alt_txchan_done* done, 
             void* handle)
{
  return dma ? dma->dma_send (dma, 
    1810:	e0bffc17 	ldw	r2,-16(fp)
    1814:	10800417 	ldw	r2,16(r2)
        from, 
        length,
        done, 
        handle) : -ENODEV;
    1818:	e0c00217 	ldw	r3,8(fp)
    181c:	d8c00015 	stw	r3,0(sp)
    1820:	e1ffff17 	ldw	r7,-4(fp)
    1824:	e1bffe17 	ldw	r6,-8(fp)
    1828:	e17ffd17 	ldw	r5,-12(fp)
    182c:	e13ffc17 	ldw	r4,-16(fp)
    1830:	103ee83a 	callr	r2
             const void* from, 
             alt_u32 length,
             alt_txchan_done* done, 
             void* handle)
{
  return dma ? dma->dma_send (dma, 
    1834:	00000106 	br	183c <alt_dma_txchan_send+0x54>
        from, 
        length,
        done, 
        handle) : -ENODEV;
    1838:	00bffb44 	movi	r2,-19
}
    183c:	e037883a 	mov	sp,fp
    1840:	dfc00117 	ldw	ra,4(sp)
    1844:	df000017 	ldw	fp,0(sp)
    1848:	dec00204 	addi	sp,sp,8
    184c:	f800283a 	ret

00001850 <alt_dma_rxchan_prepare>:
static ALT_INLINE int alt_dma_rxchan_prepare (alt_dma_rxchan   dma, 
                                              void*            data,
                                              alt_u32          len,
                                              alt_rxchan_done* done,  
                                              void*            handle)
{
    1850:	defff904 	addi	sp,sp,-28
    1854:	dfc00615 	stw	ra,24(sp)
    1858:	df000515 	stw	fp,20(sp)
    185c:	df000504 	addi	fp,sp,20
    1860:	e13ffc15 	stw	r4,-16(fp)
    1864:	e17ffd15 	stw	r5,-12(fp)
    1868:	e1bffe15 	stw	r6,-8(fp)
    186c:	e1ffff15 	stw	r7,-4(fp)
  return dma ? dma->prepare (dma, data, len, done, handle) : -ENODEV;
    1870:	e0bffc17 	ldw	r2,-16(fp)
    1874:	10000a26 	beq	r2,zero,18a0 <alt_dma_rxchan_prepare+0x50>
    1878:	e0bffc17 	ldw	r2,-16(fp)
    187c:	10800417 	ldw	r2,16(r2)
    1880:	e0c00217 	ldw	r3,8(fp)
    1884:	d8c00015 	stw	r3,0(sp)
    1888:	e1ffff17 	ldw	r7,-4(fp)
    188c:	e1bffe17 	ldw	r6,-8(fp)
    1890:	e17ffd17 	ldw	r5,-12(fp)
    1894:	e13ffc17 	ldw	r4,-16(fp)
    1898:	103ee83a 	callr	r2
    189c:	00000106 	br	18a4 <alt_dma_rxchan_prepare+0x54>
    18a0:	00bffb44 	movi	r2,-19
}
    18a4:	e037883a 	mov	sp,fp
    18a8:	dfc00117 	ldw	ra,4(sp)
    18ac:	df000017 	ldw	fp,0(sp)
    18b0:	dec00204 	addi	sp,sp,8
    18b4:	f800283a 	ret

000018b8 <draw_tree>:
char transfer(volatile void* from, volatile void* to, alt_u32 size);

volatile struct gpu_core_t* gpu = GPU_CORE_0_BASE;
volatile struct dma_controller_t* dma = PIXEL_DMA_BASE;

void draw_tree(volatile gpu_core_t* gpu, int base_x, int base_y, int base_z, int height, int log_id, int leaf_id) {
    18b8:	defff704 	addi	sp,sp,-36
    18bc:	dfc00815 	stw	ra,32(sp)
    18c0:	df000715 	stw	fp,28(sp)
    18c4:	df000704 	addi	fp,sp,28
    18c8:	e13ffc15 	stw	r4,-16(fp)
    18cc:	e17ffd15 	stw	r5,-12(fp)
    18d0:	e1bffe15 	stw	r6,-8(fp)
    18d4:	e1ffff15 	stw	r7,-4(fp)
	for (int y = 0; y < height; y++) {
    18d8:	e03ffb15 	stw	zero,-20(fp)
    18dc:	00001006 	br	1920 <draw_tree+0x68>
		draw_cube(gpu, 8, base_x, base_y + 8 * y, base_z, log_id);
    18e0:	e0bffb17 	ldw	r2,-20(fp)
    18e4:	100690fa 	slli	r3,r2,3
    18e8:	e0bffe17 	ldw	r2,-8(fp)
    18ec:	1887883a 	add	r3,r3,r2
    18f0:	e0800317 	ldw	r2,12(fp)
    18f4:	d8800115 	stw	r2,4(sp)
    18f8:	e0bfff17 	ldw	r2,-4(fp)
    18fc:	d8800015 	stw	r2,0(sp)
    1900:	180f883a 	mov	r7,r3
    1904:	e1bffd17 	ldw	r6,-12(fp)
    1908:	01400204 	movi	r5,8
    190c:	e13ffc17 	ldw	r4,-16(fp)
    1910:	00003600 	call	360 <draw_cube>

volatile struct gpu_core_t* gpu = GPU_CORE_0_BASE;
volatile struct dma_controller_t* dma = PIXEL_DMA_BASE;

void draw_tree(volatile gpu_core_t* gpu, int base_x, int base_y, int base_z, int height, int log_id, int leaf_id) {
	for (int y = 0; y < height; y++) {
    1914:	e0bffb17 	ldw	r2,-20(fp)
    1918:	10800044 	addi	r2,r2,1
    191c:	e0bffb15 	stw	r2,-20(fp)
    1920:	e0fffb17 	ldw	r3,-20(fp)
    1924:	e0800217 	ldw	r2,8(fp)
    1928:	18bfed16 	blt	r3,r2,18e0 <__alt_exception_stack_pointer+0xf80018e0>
		draw_cube(gpu, 8, base_x, base_y + 8 * y, base_z, log_id);
	}
	draw_cube(gpu, 8, base_x, base_y + 8 * height, base_z, leaf_id);
    192c:	e0800217 	ldw	r2,8(fp)
    1930:	100690fa 	slli	r3,r2,3
    1934:	e0bffe17 	ldw	r2,-8(fp)
    1938:	1887883a 	add	r3,r3,r2
    193c:	e0800417 	ldw	r2,16(fp)
    1940:	d8800115 	stw	r2,4(sp)
    1944:	e0bfff17 	ldw	r2,-4(fp)
    1948:	d8800015 	stw	r2,0(sp)
    194c:	180f883a 	mov	r7,r3
    1950:	e1bffd17 	ldw	r6,-12(fp)
    1954:	01400204 	movi	r5,8
    1958:	e13ffc17 	ldw	r4,-16(fp)
    195c:	00003600 	call	360 <draw_cube>
	draw_cube(gpu, 8, base_x-8, base_y + 8 * height - 8, base_z, leaf_id);
    1960:	e0bffd17 	ldw	r2,-12(fp)
    1964:	113ffe04 	addi	r4,r2,-8
    1968:	e0800217 	ldw	r2,8(fp)
    196c:	100690fa 	slli	r3,r2,3
    1970:	e0bffe17 	ldw	r2,-8(fp)
    1974:	1885883a 	add	r2,r3,r2
    1978:	10fffe04 	addi	r3,r2,-8
    197c:	e0800417 	ldw	r2,16(fp)
    1980:	d8800115 	stw	r2,4(sp)
    1984:	e0bfff17 	ldw	r2,-4(fp)
    1988:	d8800015 	stw	r2,0(sp)
    198c:	180f883a 	mov	r7,r3
    1990:	200d883a 	mov	r6,r4
    1994:	01400204 	movi	r5,8
    1998:	e13ffc17 	ldw	r4,-16(fp)
    199c:	00003600 	call	360 <draw_cube>
	draw_cube(gpu, 8, base_x+8, base_y + 8 * height - 8, base_z, leaf_id);
    19a0:	e0bffd17 	ldw	r2,-12(fp)
    19a4:	11000204 	addi	r4,r2,8
    19a8:	e0800217 	ldw	r2,8(fp)
    19ac:	100690fa 	slli	r3,r2,3
    19b0:	e0bffe17 	ldw	r2,-8(fp)
    19b4:	1885883a 	add	r2,r3,r2
    19b8:	10fffe04 	addi	r3,r2,-8
    19bc:	e0800417 	ldw	r2,16(fp)
    19c0:	d8800115 	stw	r2,4(sp)
    19c4:	e0bfff17 	ldw	r2,-4(fp)
    19c8:	d8800015 	stw	r2,0(sp)
    19cc:	180f883a 	mov	r7,r3
    19d0:	200d883a 	mov	r6,r4
    19d4:	01400204 	movi	r5,8
    19d8:	e13ffc17 	ldw	r4,-16(fp)
    19dc:	00003600 	call	360 <draw_cube>
	draw_cube(gpu, 8, base_x, base_y + 8 * height - 8, base_z + 8, leaf_id);
    19e0:	e0800217 	ldw	r2,8(fp)
    19e4:	100690fa 	slli	r3,r2,3
    19e8:	e0bffe17 	ldw	r2,-8(fp)
    19ec:	1885883a 	add	r2,r3,r2
    19f0:	113ffe04 	addi	r4,r2,-8
    19f4:	e0bfff17 	ldw	r2,-4(fp)
    19f8:	10800204 	addi	r2,r2,8
    19fc:	e0c00417 	ldw	r3,16(fp)
    1a00:	d8c00115 	stw	r3,4(sp)
    1a04:	d8800015 	stw	r2,0(sp)
    1a08:	200f883a 	mov	r7,r4
    1a0c:	e1bffd17 	ldw	r6,-12(fp)
    1a10:	01400204 	movi	r5,8
    1a14:	e13ffc17 	ldw	r4,-16(fp)
    1a18:	00003600 	call	360 <draw_cube>
	draw_cube(gpu, 8, base_x, base_y + 8 * height - 8, base_z - 8, leaf_id);
    1a1c:	e0800217 	ldw	r2,8(fp)
    1a20:	100690fa 	slli	r3,r2,3
    1a24:	e0bffe17 	ldw	r2,-8(fp)
    1a28:	1885883a 	add	r2,r3,r2
    1a2c:	113ffe04 	addi	r4,r2,-8
    1a30:	e0bfff17 	ldw	r2,-4(fp)
    1a34:	10bffe04 	addi	r2,r2,-8
    1a38:	e0c00417 	ldw	r3,16(fp)
    1a3c:	d8c00115 	stw	r3,4(sp)
    1a40:	d8800015 	stw	r2,0(sp)
    1a44:	200f883a 	mov	r7,r4
    1a48:	e1bffd17 	ldw	r6,-12(fp)
    1a4c:	01400204 	movi	r5,8
    1a50:	e13ffc17 	ldw	r4,-16(fp)
    1a54:	00003600 	call	360 <draw_cube>

	draw_cube(gpu, 8, base_x-8, base_y + 8 * height - 16, base_z, leaf_id);
    1a58:	e0bffd17 	ldw	r2,-12(fp)
    1a5c:	113ffe04 	addi	r4,r2,-8
    1a60:	e0800217 	ldw	r2,8(fp)
    1a64:	100690fa 	slli	r3,r2,3
    1a68:	e0bffe17 	ldw	r2,-8(fp)
    1a6c:	1885883a 	add	r2,r3,r2
    1a70:	10fffc04 	addi	r3,r2,-16
    1a74:	e0800417 	ldw	r2,16(fp)
    1a78:	d8800115 	stw	r2,4(sp)
    1a7c:	e0bfff17 	ldw	r2,-4(fp)
    1a80:	d8800015 	stw	r2,0(sp)
    1a84:	180f883a 	mov	r7,r3
    1a88:	200d883a 	mov	r6,r4
    1a8c:	01400204 	movi	r5,8
    1a90:	e13ffc17 	ldw	r4,-16(fp)
    1a94:	00003600 	call	360 <draw_cube>
	draw_cube(gpu, 8, base_x+8, base_y + 8 * height - 16, base_z, leaf_id);
    1a98:	e0bffd17 	ldw	r2,-12(fp)
    1a9c:	11000204 	addi	r4,r2,8
    1aa0:	e0800217 	ldw	r2,8(fp)
    1aa4:	100690fa 	slli	r3,r2,3
    1aa8:	e0bffe17 	ldw	r2,-8(fp)
    1aac:	1885883a 	add	r2,r3,r2
    1ab0:	10fffc04 	addi	r3,r2,-16
    1ab4:	e0800417 	ldw	r2,16(fp)
    1ab8:	d8800115 	stw	r2,4(sp)
    1abc:	e0bfff17 	ldw	r2,-4(fp)
    1ac0:	d8800015 	stw	r2,0(sp)
    1ac4:	180f883a 	mov	r7,r3
    1ac8:	200d883a 	mov	r6,r4
    1acc:	01400204 	movi	r5,8
    1ad0:	e13ffc17 	ldw	r4,-16(fp)
    1ad4:	00003600 	call	360 <draw_cube>
	draw_cube(gpu, 8, base_x, base_y + 8 * height - 16, base_z + 8, leaf_id);
    1ad8:	e0800217 	ldw	r2,8(fp)
    1adc:	100690fa 	slli	r3,r2,3
    1ae0:	e0bffe17 	ldw	r2,-8(fp)
    1ae4:	1885883a 	add	r2,r3,r2
    1ae8:	113ffc04 	addi	r4,r2,-16
    1aec:	e0bfff17 	ldw	r2,-4(fp)
    1af0:	10800204 	addi	r2,r2,8
    1af4:	e0c00417 	ldw	r3,16(fp)
    1af8:	d8c00115 	stw	r3,4(sp)
    1afc:	d8800015 	stw	r2,0(sp)
    1b00:	200f883a 	mov	r7,r4
    1b04:	e1bffd17 	ldw	r6,-12(fp)
    1b08:	01400204 	movi	r5,8
    1b0c:	e13ffc17 	ldw	r4,-16(fp)
    1b10:	00003600 	call	360 <draw_cube>
	draw_cube(gpu, 8, base_x, base_y + 8 * height - 16, base_z - 8, leaf_id);
    1b14:	e0800217 	ldw	r2,8(fp)
    1b18:	100690fa 	slli	r3,r2,3
    1b1c:	e0bffe17 	ldw	r2,-8(fp)
    1b20:	1885883a 	add	r2,r3,r2
    1b24:	113ffc04 	addi	r4,r2,-16
    1b28:	e0bfff17 	ldw	r2,-4(fp)
    1b2c:	10bffe04 	addi	r2,r2,-8
    1b30:	e0c00417 	ldw	r3,16(fp)
    1b34:	d8c00115 	stw	r3,4(sp)
    1b38:	d8800015 	stw	r2,0(sp)
    1b3c:	200f883a 	mov	r7,r4
    1b40:	e1bffd17 	ldw	r6,-12(fp)
    1b44:	01400204 	movi	r5,8
    1b48:	e13ffc17 	ldw	r4,-16(fp)
    1b4c:	00003600 	call	360 <draw_cube>

	draw_cube(gpu, 8, base_x-8, base_y + 8 * height - 16, base_z-8, leaf_id);
    1b50:	e0bffd17 	ldw	r2,-12(fp)
    1b54:	113ffe04 	addi	r4,r2,-8
    1b58:	e0800217 	ldw	r2,8(fp)
    1b5c:	100690fa 	slli	r3,r2,3
    1b60:	e0bffe17 	ldw	r2,-8(fp)
    1b64:	1885883a 	add	r2,r3,r2
    1b68:	117ffc04 	addi	r5,r2,-16
    1b6c:	e0bfff17 	ldw	r2,-4(fp)
    1b70:	10bffe04 	addi	r2,r2,-8
    1b74:	e0c00417 	ldw	r3,16(fp)
    1b78:	d8c00115 	stw	r3,4(sp)
    1b7c:	d8800015 	stw	r2,0(sp)
    1b80:	280f883a 	mov	r7,r5
    1b84:	200d883a 	mov	r6,r4
    1b88:	01400204 	movi	r5,8
    1b8c:	e13ffc17 	ldw	r4,-16(fp)
    1b90:	00003600 	call	360 <draw_cube>
	draw_cube(gpu, 8, base_x+8, base_y + 8 * height - 16, base_z-8, leaf_id);
    1b94:	e0bffd17 	ldw	r2,-12(fp)
    1b98:	11000204 	addi	r4,r2,8
    1b9c:	e0800217 	ldw	r2,8(fp)
    1ba0:	100690fa 	slli	r3,r2,3
    1ba4:	e0bffe17 	ldw	r2,-8(fp)
    1ba8:	1885883a 	add	r2,r3,r2
    1bac:	117ffc04 	addi	r5,r2,-16
    1bb0:	e0bfff17 	ldw	r2,-4(fp)
    1bb4:	10bffe04 	addi	r2,r2,-8
    1bb8:	e0c00417 	ldw	r3,16(fp)
    1bbc:	d8c00115 	stw	r3,4(sp)
    1bc0:	d8800015 	stw	r2,0(sp)
    1bc4:	280f883a 	mov	r7,r5
    1bc8:	200d883a 	mov	r6,r4
    1bcc:	01400204 	movi	r5,8
    1bd0:	e13ffc17 	ldw	r4,-16(fp)
    1bd4:	00003600 	call	360 <draw_cube>
	draw_cube(gpu, 8, base_x-8, base_y + 8 * height - 16, base_z + 8, leaf_id);
    1bd8:	e0bffd17 	ldw	r2,-12(fp)
    1bdc:	113ffe04 	addi	r4,r2,-8
    1be0:	e0800217 	ldw	r2,8(fp)
    1be4:	100690fa 	slli	r3,r2,3
    1be8:	e0bffe17 	ldw	r2,-8(fp)
    1bec:	1885883a 	add	r2,r3,r2
    1bf0:	117ffc04 	addi	r5,r2,-16
    1bf4:	e0bfff17 	ldw	r2,-4(fp)
    1bf8:	10800204 	addi	r2,r2,8
    1bfc:	e0c00417 	ldw	r3,16(fp)
    1c00:	d8c00115 	stw	r3,4(sp)
    1c04:	d8800015 	stw	r2,0(sp)
    1c08:	280f883a 	mov	r7,r5
    1c0c:	200d883a 	mov	r6,r4
    1c10:	01400204 	movi	r5,8
    1c14:	e13ffc17 	ldw	r4,-16(fp)
    1c18:	00003600 	call	360 <draw_cube>
	draw_cube(gpu, 8, base_x+8, base_y + 8 * height - 16, base_z + 8, leaf_id);
    1c1c:	e0bffd17 	ldw	r2,-12(fp)
    1c20:	11000204 	addi	r4,r2,8
    1c24:	e0800217 	ldw	r2,8(fp)
    1c28:	100690fa 	slli	r3,r2,3
    1c2c:	e0bffe17 	ldw	r2,-8(fp)
    1c30:	1885883a 	add	r2,r3,r2
    1c34:	117ffc04 	addi	r5,r2,-16
    1c38:	e0bfff17 	ldw	r2,-4(fp)
    1c3c:	10800204 	addi	r2,r2,8
    1c40:	e0c00417 	ldw	r3,16(fp)
    1c44:	d8c00115 	stw	r3,4(sp)
    1c48:	d8800015 	stw	r2,0(sp)
    1c4c:	280f883a 	mov	r7,r5
    1c50:	200d883a 	mov	r6,r4
    1c54:	01400204 	movi	r5,8
    1c58:	e13ffc17 	ldw	r4,-16(fp)
    1c5c:	00003600 	call	360 <draw_cube>

}
    1c60:	0001883a 	nop
    1c64:	e037883a 	mov	sp,fp
    1c68:	dfc00117 	ldw	ra,4(sp)
    1c6c:	df000017 	ldw	fp,0(sp)
    1c70:	dec00204 	addi	sp,sp,8
    1c74:	f800283a 	ret

00001c78 <main>:

int main() {
    1c78:	deffe304 	addi	sp,sp,-116
    1c7c:	dfc01c15 	stw	ra,112(sp)
    1c80:	df001b15 	stw	fp,108(sp)
    1c84:	dc001a15 	stw	r16,104(sp)
    1c88:	df001b04 	addi	fp,sp,108

	printf("Starting up");
    1c8c:	01000074 	movhi	r4,1
    1c90:	211eac04 	addi	r4,r4,31408
    1c94:	000909c0 	call	909c <printf>

	union frame_buffer_t* frame1 = (frame_buffer_t*) COPY_DMA_WRITE_MASTER_FRAME_BUFFER_BASE;
    1c98:	00820034 	movhi	r2,2048
    1c9c:	e0bff115 	stw	r2,-60(fp)
	union frame_buffer_t* frame2 = malloc(sizeof(frame_buffer_t));
    1ca0:	01000174 	movhi	r4,5
    1ca4:	212c0004 	addi	r4,r4,-20480
    1ca8:	00088380 	call	8838 <malloc>
    1cac:	e0bff215 	stw	r2,-56(fp)
	union z_buffer_t* z_buffer = malloc(sizeof(z_buffer_t));
    1cb0:	01000174 	movhi	r4,5
    1cb4:	212c0004 	addi	r4,r4,-20480
    1cb8:	00088380 	call	8838 <malloc>
    1cbc:	e0bff315 	stw	r2,-52(fp)

	dma->back_buffer = frame1;
    1cc0:	d0a00117 	ldw	r2,-32764(gp)
    1cc4:	e0fff117 	ldw	r3,-60(fp)
    1cc8:	10c00115 	stw	r3,4(r2)
	dma->front_buffer = 0; //swap
    1ccc:	d0a00117 	ldw	r2,-32764(gp)
    1cd0:	10000015 	stw	zero,0(r2)

	gpu->frame_pointer = frame2;
    1cd4:	d0a00017 	ldw	r2,-32768(gp)
    1cd8:	e0fff217 	ldw	r3,-56(fp)
    1cdc:	10c00015 	stw	r3,0(r2)
	gpu->z_buffer = z_buffer;
    1ce0:	d0a00017 	ldw	r2,-32768(gp)
    1ce4:	e0fff317 	ldw	r3,-52(fp)
    1ce8:	10c00315 	stw	r3,12(r2)

	printf("Allocation Done. Frame 1: %h, Frame2: %h, Z Buffer: %h\n", frame1,
    1cec:	e1fff317 	ldw	r7,-52(fp)
    1cf0:	e1bff217 	ldw	r6,-56(fp)
    1cf4:	e17ff117 	ldw	r5,-60(fp)
    1cf8:	01000074 	movhi	r4,1
    1cfc:	211eaf04 	addi	r4,r4,31420
    1d00:	000909c0 	call	909c <printf>
			frame2, z_buffer);

	printf("Done initial clear, Initing keyboard\n");
    1d04:	01000074 	movhi	r4,1
    1d08:	211ebd04 	addi	r4,r4,31476
    1d0c:	00091980 	call	9198 <puts>
	init_keyboard();
    1d10:	0000c700 	call	c70 <init_keyboard>

	double theta = 0;
    1d14:	e03fe815 	stw	zero,-96(fp)
    1d18:	e03fe915 	stw	zero,-92(fp)
	double phi = 0;
    1d1c:	e03fea15 	stw	zero,-88(fp)
    1d20:	e03feb15 	stw	zero,-84(fp)

	gpu->cam_pos.z = 0;
    1d24:	d0a00017 	ldw	r2,-32768(gp)
    1d28:	10001515 	stw	zero,84(r2)
	gpu->cam_pos.y = 0;
    1d2c:	d0a00017 	ldw	r2,-32768(gp)
    1d30:	10001415 	stw	zero,80(r2)

	int keycode = 0;
    1d34:	e03ffc15 	stw	zero,-16(fp)
	float last_fps = 0;
    1d38:	e03fec15 	stw	zero,-80(fp)
	char fps_str[4];
	while (1) {
		time_t start_time = clock();
    1d3c:	00086140 	call	8614 <clock>
    1d40:	e0bff415 	stw	r2,-48(fp)
		time_t frame_time = clock();
    1d44:	00086140 	call	8614 <clock>
    1d48:	e0bff515 	stw	r2,-44(fp)

		//transfer(frame_clean, frame2, sizeof(frame2->D1));
		//transfer(z_buffer_clean, z_buffer, sizeof(z_buffer->D2));

		clear_screen(gpu, 1);
    1d4c:	d0a00017 	ldw	r2,-32768(gp)
    1d50:	01400044 	movi	r5,1
    1d54:	1009883a 	mov	r4,r2
    1d58:	00002780 	call	278 <clear_screen>
		clear_depth(gpu, 1);
    1d5c:	d0a00017 	ldw	r2,-32768(gp)
    1d60:	01400044 	movi	r5,1
    1d64:	1009883a 	mov	r4,r2
    1d68:	00002ec0 	call	2ec <clear_depth>


		printf("Clear ticks %d\n", clock() - start_time);
    1d6c:	00086140 	call	8614 <clock>
    1d70:	1007883a 	mov	r3,r2
    1d74:	e0bff417 	ldw	r2,-48(fp)
    1d78:	1885c83a 	sub	r2,r3,r2
    1d7c:	100b883a 	mov	r5,r2
    1d80:	01000074 	movhi	r4,1
    1d84:	211ec704 	addi	r4,r4,31516
    1d88:	000909c0 	call	909c <printf>

		start_time = clock();
    1d8c:	00086140 	call	8614 <clock>
    1d90:	e0bff415 	stw	r2,-48(fp)

		for (int z = 4; z > 0; z--) {
    1d94:	00800104 	movi	r2,4
    1d98:	e0bfed15 	stw	r2,-76(fp)
    1d9c:	00001a06 	br	1e08 <main+0x190>
			for (int x = 10; x > -5; x--) {
    1da0:	00800284 	movi	r2,10
    1da4:	e0bfee15 	stw	r2,-72(fp)
    1da8:	00001106 	br	1df0 <main+0x178>
				draw_cube(gpu, 8, -16 + 8 * x, -16, -64 + 8 * z, BLOCK_GRASS);
    1dac:	d0e00017 	ldw	r3,-32768(gp)
    1db0:	e0bfee17 	ldw	r2,-72(fp)
    1db4:	10bfff84 	addi	r2,r2,-2
    1db8:	100890fa 	slli	r4,r2,3
    1dbc:	e0bfed17 	ldw	r2,-76(fp)
    1dc0:	10bffe04 	addi	r2,r2,-8
    1dc4:	100490fa 	slli	r2,r2,3
    1dc8:	d8000115 	stw	zero,4(sp)
    1dcc:	d8800015 	stw	r2,0(sp)
    1dd0:	01fffc04 	movi	r7,-16
    1dd4:	200d883a 	mov	r6,r4
    1dd8:	01400204 	movi	r5,8
    1ddc:	1809883a 	mov	r4,r3
    1de0:	00003600 	call	360 <draw_cube>
		printf("Clear ticks %d\n", clock() - start_time);

		start_time = clock();

		for (int z = 4; z > 0; z--) {
			for (int x = 10; x > -5; x--) {
    1de4:	e0bfee17 	ldw	r2,-72(fp)
    1de8:	10bfffc4 	addi	r2,r2,-1
    1dec:	e0bfee15 	stw	r2,-72(fp)
    1df0:	e0bfee17 	ldw	r2,-72(fp)
    1df4:	10bfff08 	cmpgei	r2,r2,-4
    1df8:	103fec1e 	bne	r2,zero,1dac <__alt_exception_stack_pointer+0xf8001dac>

		printf("Clear ticks %d\n", clock() - start_time);

		start_time = clock();

		for (int z = 4; z > 0; z--) {
    1dfc:	e0bfed17 	ldw	r2,-76(fp)
    1e00:	10bfffc4 	addi	r2,r2,-1
    1e04:	e0bfed15 	stw	r2,-76(fp)
    1e08:	e0bfed17 	ldw	r2,-76(fp)
    1e0c:	00bfe416 	blt	zero,r2,1da0 <__alt_exception_stack_pointer+0xf8001da0>
				draw_cube(gpu, 8, -16 + 8 * x, -16, -64 + 8 * z, BLOCK_GRASS);
			}
		}

		//		draw_cube(gpu, 8, -16 + 16, -16 + 8 * y, -64 + 16 - 16, BLOCK_LOG_DARK);
		draw_tree(gpu, 0, -16, -64, 5, BLOCK_LOG_DARK, BLOCK_LEAF_TRANS);
    1e10:	d0e00017 	ldw	r3,-32768(gp)
    1e14:	00800144 	movi	r2,5
    1e18:	d8800215 	stw	r2,8(sp)
    1e1c:	008000c4 	movi	r2,3
    1e20:	d8800115 	stw	r2,4(sp)
    1e24:	00800144 	movi	r2,5
    1e28:	d8800015 	stw	r2,0(sp)
    1e2c:	01fff004 	movi	r7,-64
    1e30:	01bffc04 	movi	r6,-16
    1e34:	000b883a 	mov	r5,zero
    1e38:	1809883a 	mov	r4,r3
    1e3c:	00018b80 	call	18b8 <draw_tree>


		draw_tree(gpu, -16, -16, -48, 6,  BLOCK_LOG, BLOCK_LEAF_TRANS);
    1e40:	d0e00017 	ldw	r3,-32768(gp)
    1e44:	00800144 	movi	r2,5
    1e48:	d8800215 	stw	r2,8(sp)
    1e4c:	00800084 	movi	r2,2
    1e50:	d8800115 	stw	r2,4(sp)
    1e54:	00800184 	movi	r2,6
    1e58:	d8800015 	stw	r2,0(sp)
    1e5c:	01fff404 	movi	r7,-48
    1e60:	01bffc04 	movi	r6,-16
    1e64:	017ffc04 	movi	r5,-16
    1e68:	1809883a 	mov	r4,r3
    1e6c:	00018b80 	call	18b8 <draw_tree>



		draw_cube(gpu, 8, 16, -8, -40, BLOCK_COBBLE);
    1e70:	d0e00017 	ldw	r3,-32768(gp)
    1e74:	00800204 	movi	r2,8
    1e78:	d8800115 	stw	r2,4(sp)
    1e7c:	00bff604 	movi	r2,-40
    1e80:	d8800015 	stw	r2,0(sp)
    1e84:	01fffe04 	movi	r7,-8
    1e88:	01800404 	movi	r6,16
    1e8c:	01400204 	movi	r5,8
    1e90:	1809883a 	mov	r4,r3
    1e94:	00003600 	call	360 <draw_cube>
		draw_cube(gpu, 8, 8, -8, -40, BLOCK_COBBLE);
    1e98:	d0e00017 	ldw	r3,-32768(gp)
    1e9c:	00800204 	movi	r2,8
    1ea0:	d8800115 	stw	r2,4(sp)
    1ea4:	00bff604 	movi	r2,-40
    1ea8:	d8800015 	stw	r2,0(sp)
    1eac:	01fffe04 	movi	r7,-8
    1eb0:	01800204 	movi	r6,8
    1eb4:	01400204 	movi	r5,8
    1eb8:	1809883a 	mov	r4,r3
    1ebc:	00003600 	call	360 <draw_cube>
		draw_cube(gpu, 8, 24, -8, -40, BLOCK_COBBLE);
    1ec0:	d0e00017 	ldw	r3,-32768(gp)
    1ec4:	00800204 	movi	r2,8
    1ec8:	d8800115 	stw	r2,4(sp)
    1ecc:	00bff604 	movi	r2,-40
    1ed0:	d8800015 	stw	r2,0(sp)
    1ed4:	01fffe04 	movi	r7,-8
    1ed8:	01800604 	movi	r6,24
    1edc:	01400204 	movi	r5,8
    1ee0:	1809883a 	mov	r4,r3
    1ee4:	00003600 	call	360 <draw_cube>
		draw_cube(gpu, 8, 16, -8, -40 - 8, BLOCK_COBBLE);
    1ee8:	d0e00017 	ldw	r3,-32768(gp)
    1eec:	00800204 	movi	r2,8
    1ef0:	d8800115 	stw	r2,4(sp)
    1ef4:	00bff404 	movi	r2,-48
    1ef8:	d8800015 	stw	r2,0(sp)
    1efc:	01fffe04 	movi	r7,-8
    1f00:	01800404 	movi	r6,16
    1f04:	01400204 	movi	r5,8
    1f08:	1809883a 	mov	r4,r3
    1f0c:	00003600 	call	360 <draw_cube>
		draw_cube(gpu, 8, 16, -8, -40 + 8, BLOCK_GLASS);
    1f10:	d0e00017 	ldw	r3,-32768(gp)
    1f14:	008002c4 	movi	r2,11
    1f18:	d8800115 	stw	r2,4(sp)
    1f1c:	00bff804 	movi	r2,-32
    1f20:	d8800015 	stw	r2,0(sp)
    1f24:	01fffe04 	movi	r7,-8
    1f28:	01800404 	movi	r6,16
    1f2c:	01400204 	movi	r5,8
    1f30:	1809883a 	mov	r4,r3
    1f34:	00003600 	call	360 <draw_cube>
		draw_cube(gpu, 8, 16, 0, -40, BLOCK_FURNACE);
    1f38:	d0e00017 	ldw	r3,-32768(gp)
    1f3c:	00800284 	movi	r2,10
    1f40:	d8800115 	stw	r2,4(sp)
    1f44:	00bff604 	movi	r2,-40
    1f48:	d8800015 	stw	r2,0(sp)
    1f4c:	000f883a 	mov	r7,zero
    1f50:	01800404 	movi	r6,16
    1f54:	01400204 	movi	r5,8
    1f58:	1809883a 	mov	r4,r3
    1f5c:	00003600 	call	360 <draw_cube>



		int c_w = 3;
    1f60:	008000c4 	movi	r2,3
    1f64:	e0bff615 	stw	r2,-40(fp)
		int c_h = 3;
    1f68:	008000c4 	movi	r2,3
    1f6c:	e0bff715 	stw	r2,-36(fp)
		pixel_t pixel = {200, 200, 200, 0};
    1f70:	00bff204 	movi	r2,-56
    1f74:	e0bffe05 	stb	r2,-8(fp)
    1f78:	00bff204 	movi	r2,-56
    1f7c:	e0bffe45 	stb	r2,-7(fp)
    1f80:	00bff204 	movi	r2,-56
    1f84:	e0bffe85 	stb	r2,-6(fp)
    1f88:	e03ffec5 	stb	zero,-5(fp)
		for(int c = SCREEN_HEIGHT/2 - c_w; c < SCREEN_HEIGHT/2 + c_w + 1;c++) {
    1f8c:	00c01e04 	movi	r3,120
    1f90:	e0bff617 	ldw	r2,-40(fp)
    1f94:	1885c83a 	sub	r2,r3,r2
    1f98:	e0bfef15 	stw	r2,-68(fp)
    1f9c:	00001206 	br	1fe8 <main+0x370>
			frame2->D2[c][SCREEN_WIDTH/2] = pixel;
    1fa0:	e43ff217 	ldw	r16,-56(fp)
    1fa4:	e0bfef17 	ldw	r2,-68(fp)
    1fa8:	01414004 	movi	r5,1280
    1fac:	1009883a 	mov	r4,r2
    1fb0:	0005b840 	call	5b84 <__mulsi3>
    1fb4:	8085883a 	add	r2,r16,r2
    1fb8:	1080a004 	addi	r2,r2,640
    1fbc:	e0fffe03 	ldbu	r3,-8(fp)
    1fc0:	10c00005 	stb	r3,0(r2)
    1fc4:	e0fffe43 	ldbu	r3,-7(fp)
    1fc8:	10c00045 	stb	r3,1(r2)
    1fcc:	e0fffe83 	ldbu	r3,-6(fp)
    1fd0:	10c00085 	stb	r3,2(r2)
    1fd4:	e0fffec3 	ldbu	r3,-5(fp)
    1fd8:	10c000c5 	stb	r3,3(r2)


		int c_w = 3;
		int c_h = 3;
		pixel_t pixel = {200, 200, 200, 0};
		for(int c = SCREEN_HEIGHT/2 - c_w; c < SCREEN_HEIGHT/2 + c_w + 1;c++) {
    1fdc:	e0bfef17 	ldw	r2,-68(fp)
    1fe0:	10800044 	addi	r2,r2,1
    1fe4:	e0bfef15 	stw	r2,-68(fp)
    1fe8:	e0bff617 	ldw	r2,-40(fp)
    1fec:	10801e44 	addi	r2,r2,121
    1ff0:	e0ffef17 	ldw	r3,-68(fp)
    1ff4:	18bfea16 	blt	r3,r2,1fa0 <__alt_exception_stack_pointer+0xf8001fa0>
			frame2->D2[c][SCREEN_WIDTH/2] = pixel;
		}
		for(int c = SCREEN_WIDTH/2 - c_h; c < SCREEN_WIDTH/2 + c_h + 1;c++) {
    1ff8:	00c02804 	movi	r3,160
    1ffc:	e0bff717 	ldw	r2,-36(fp)
    2000:	1885c83a 	sub	r2,r3,r2
    2004:	e0bff015 	stw	r2,-64(fp)
    2008:	00001206 	br	2054 <main+0x3dc>
			frame2->D2[SCREEN_HEIGHT/2][c] = pixel;
    200c:	e0fff217 	ldw	r3,-56(fp)
    2010:	e13ff017 	ldw	r4,-64(fp)
    2014:	00a58014 	movui	r2,38400
    2018:	2085883a 	add	r2,r4,r2
    201c:	1085883a 	add	r2,r2,r2
    2020:	1085883a 	add	r2,r2,r2
    2024:	1885883a 	add	r2,r3,r2
    2028:	e0fffe03 	ldbu	r3,-8(fp)
    202c:	10c00005 	stb	r3,0(r2)
    2030:	e0fffe43 	ldbu	r3,-7(fp)
    2034:	10c00045 	stb	r3,1(r2)
    2038:	e0fffe83 	ldbu	r3,-6(fp)
    203c:	10c00085 	stb	r3,2(r2)
    2040:	e0fffec3 	ldbu	r3,-5(fp)
    2044:	10c000c5 	stb	r3,3(r2)
		int c_h = 3;
		pixel_t pixel = {200, 200, 200, 0};
		for(int c = SCREEN_HEIGHT/2 - c_w; c < SCREEN_HEIGHT/2 + c_w + 1;c++) {
			frame2->D2[c][SCREEN_WIDTH/2] = pixel;
		}
		for(int c = SCREEN_WIDTH/2 - c_h; c < SCREEN_WIDTH/2 + c_h + 1;c++) {
    2048:	e0bff017 	ldw	r2,-64(fp)
    204c:	10800044 	addi	r2,r2,1
    2050:	e0bff015 	stw	r2,-64(fp)
    2054:	e0bff717 	ldw	r2,-36(fp)
    2058:	10802844 	addi	r2,r2,161
    205c:	e0fff017 	ldw	r3,-64(fp)
    2060:	18bfea16 	blt	r3,r2,200c <__alt_exception_stack_pointer+0xf800200c>
			frame2->D2[SCREEN_HEIGHT/2][c] = pixel;
		}

		printf("Render ticks %d\n", clock() - start_time);
    2064:	00086140 	call	8614 <clock>
    2068:	1007883a 	mov	r3,r2
    206c:	e0bff417 	ldw	r2,-48(fp)
    2070:	1885c83a 	sub	r2,r3,r2
    2074:	100b883a 	mov	r5,r2
    2078:	01000074 	movhi	r4,1
    207c:	211ecb04 	addi	r4,r4,31532
    2080:	000909c0 	call	909c <printf>
		start_time = clock();
    2084:	00086140 	call	8614 <clock>
    2088:	e0bff415 	stw	r2,-48(fp)


		gcvt (last_fps, 4, fps_str);
    208c:	e13fec17 	ldw	r4,-80(fp)
    2090:	00082f80 	call	82f8 <__extendsfdf2>
    2094:	1011883a 	mov	r8,r2
    2098:	1813883a 	mov	r9,r3
    209c:	e0bffd04 	addi	r2,fp,-12
    20a0:	100f883a 	mov	r7,r2
    20a4:	01800104 	movi	r6,4
    20a8:	4009883a 	mov	r4,r8
    20ac:	480b883a 	mov	r5,r9
    20b0:	00087580 	call	8758 <gcvt>
		draw_string(frame2, "FPS:", 4, 10, 10);
    20b4:	00800284 	movi	r2,10
    20b8:	d8800015 	stw	r2,0(sp)
    20bc:	01c00284 	movi	r7,10
    20c0:	01800104 	movi	r6,4
    20c4:	01400074 	movhi	r5,1
    20c8:	295ed004 	addi	r5,r5,31552
    20cc:	e13ff217 	ldw	r4,-56(fp)
    20d0:	00004240 	call	424 <draw_string>
		draw_string(frame2, fps_str, 4, 40, 10);
    20d4:	e0fffd04 	addi	r3,fp,-12
    20d8:	00800284 	movi	r2,10
    20dc:	d8800015 	stw	r2,0(sp)
    20e0:	01c00a04 	movi	r7,40
    20e4:	01800104 	movi	r6,4
    20e8:	180b883a 	mov	r5,r3
    20ec:	e13ff217 	ldw	r4,-56(fp)
    20f0:	00004240 	call	424 <draw_string>
		transfer(frame2, frame1,sizeof(frame1->D1));
    20f4:	01800174 	movhi	r6,5
    20f8:	31ac0004 	addi	r6,r6,-20480
    20fc:	e17ff117 	ldw	r5,-60(fp)
    2100:	e13ff217 	ldw	r4,-56(fp)
    2104:	00025240 	call	2524 <transfer>

		printf("Copy ticks %d\n", clock() - start_time);
    2108:	00086140 	call	8614 <clock>
    210c:	1007883a 	mov	r3,r2
    2110:	e0bff417 	ldw	r2,-48(fp)
    2114:	1885c83a 	sub	r2,r3,r2
    2118:	100b883a 	mov	r5,r2
    211c:	01000074 	movhi	r4,1
    2120:	211ed204 	addi	r4,r4,31560
    2124:	000909c0 	call	909c <printf>
		start_time = clock();
    2128:	00086140 	call	8614 <clock>
    212c:	e0bff415 	stw	r2,-48(fp)


		loop_keyboard(&keycode);
    2130:	e0bffc04 	addi	r2,fp,-16
    2134:	1009883a 	mov	r4,r2
    2138:	00009700 	call	970 <loop_keyboard>
		if(keycode == KEY_S) {
    213c:	e0bffc17 	ldw	r2,-16(fp)
    2140:	10800598 	cmpnei	r2,r2,22
    2144:	1000061e 	bne	r2,zero,2160 <main+0x4e8>
			gpu->cam_pos.z += 1;
    2148:	d0a00017 	ldw	r2,-32768(gp)
    214c:	d0e00017 	ldw	r3,-32768(gp)
    2150:	18c01517 	ldw	r3,84(r3)
    2154:	18c00044 	addi	r3,r3,1
    2158:	10c01515 	stw	r3,84(r2)
    215c:	00000806 	br	2180 <main+0x508>
		} else if (keycode == KEY_W) {
    2160:	e0bffc17 	ldw	r2,-16(fp)
    2164:	10800698 	cmpnei	r2,r2,26
    2168:	1000051e 	bne	r2,zero,2180 <main+0x508>
			gpu->cam_pos.z -= 1;
    216c:	d0a00017 	ldw	r2,-32768(gp)
    2170:	d0e00017 	ldw	r3,-32768(gp)
    2174:	18c01517 	ldw	r3,84(r3)
    2178:	18ffffc4 	addi	r3,r3,-1
    217c:	10c01515 	stw	r3,84(r2)
		}

		if(keycode == KEY_A) {
    2180:	e0bffc17 	ldw	r2,-16(fp)
    2184:	10800118 	cmpnei	r2,r2,4
    2188:	1000061e 	bne	r2,zero,21a4 <main+0x52c>
			gpu->cam_pos.x += 1;
    218c:	d0a00017 	ldw	r2,-32768(gp)
    2190:	d0e00017 	ldw	r3,-32768(gp)
    2194:	18c01317 	ldw	r3,76(r3)
    2198:	18c00044 	addi	r3,r3,1
    219c:	10c01315 	stw	r3,76(r2)
    21a0:	00000806 	br	21c4 <main+0x54c>
		} else if (keycode == KEY_D) {
    21a4:	e0bffc17 	ldw	r2,-16(fp)
    21a8:	108001d8 	cmpnei	r2,r2,7
    21ac:	1000051e 	bne	r2,zero,21c4 <main+0x54c>
			gpu->cam_pos.x -= 1;
    21b0:	d0a00017 	ldw	r2,-32768(gp)
    21b4:	d0e00017 	ldw	r3,-32768(gp)
    21b8:	18c01317 	ldw	r3,76(r3)
    21bc:	18ffffc4 	addi	r3,r3,-1
    21c0:	10c01315 	stw	r3,76(r2)
		}

		if(keycode == KEY_UP) {
    21c4:	e0bffc17 	ldw	r2,-16(fp)
    21c8:	10801498 	cmpnei	r2,r2,82
    21cc:	10000c1e 	bne	r2,zero,2200 <main+0x588>
			theta += 0.01;
    21d0:	0191ebb4 	movhi	r6,18350
    21d4:	31851ec4 	addi	r6,r6,5243
    21d8:	01cfe134 	movhi	r7,16260
    21dc:	39deb844 	addi	r7,r7,31457
    21e0:	e13fe817 	ldw	r4,-96(fp)
    21e4:	e17fe917 	ldw	r5,-92(fp)
    21e8:	0005bac0 	call	5bac <__adddf3>
    21ec:	1009883a 	mov	r4,r2
    21f0:	180b883a 	mov	r5,r3
    21f4:	e13fe815 	stw	r4,-96(fp)
    21f8:	e17fe915 	stw	r5,-92(fp)
    21fc:	00000e06 	br	2238 <main+0x5c0>
		} else if(keycode == KEY_DOWN) {
    2200:	e0bffc17 	ldw	r2,-16(fp)
    2204:	10801458 	cmpnei	r2,r2,81
    2208:	10000b1e 	bne	r2,zero,2238 <main+0x5c0>
			theta -= 0.01;
    220c:	0191ebb4 	movhi	r6,18350
    2210:	31851ec4 	addi	r6,r6,5243
    2214:	01cfe134 	movhi	r7,16260
    2218:	39deb844 	addi	r7,r7,31457
    221c:	e13fe817 	ldw	r4,-96(fp)
    2220:	e17fe917 	ldw	r5,-92(fp)
    2224:	00077f80 	call	77f8 <__subdf3>
    2228:	1009883a 	mov	r4,r2
    222c:	180b883a 	mov	r5,r3
    2230:	e13fe815 	stw	r4,-96(fp)
    2234:	e17fe915 	stw	r5,-92(fp)
		}

		if(keycode == KEY_LEFT) {
    2238:	e0bffc17 	ldw	r2,-16(fp)
    223c:	10801418 	cmpnei	r2,r2,80
    2240:	10000c1e 	bne	r2,zero,2274 <main+0x5fc>
			phi += 0.01;
    2244:	0191ebb4 	movhi	r6,18350
    2248:	31851ec4 	addi	r6,r6,5243
    224c:	01cfe134 	movhi	r7,16260
    2250:	39deb844 	addi	r7,r7,31457
    2254:	e13fea17 	ldw	r4,-88(fp)
    2258:	e17feb17 	ldw	r5,-84(fp)
    225c:	0005bac0 	call	5bac <__adddf3>
    2260:	1009883a 	mov	r4,r2
    2264:	180b883a 	mov	r5,r3
    2268:	e13fea15 	stw	r4,-88(fp)
    226c:	e17feb15 	stw	r5,-84(fp)
    2270:	00000e06 	br	22ac <main+0x634>
		} else if(keycode == KEY_RIGHT) {
    2274:	e0bffc17 	ldw	r2,-16(fp)
    2278:	108013d8 	cmpnei	r2,r2,79
    227c:	10000b1e 	bne	r2,zero,22ac <main+0x634>
			phi -= 0.01;
    2280:	0191ebb4 	movhi	r6,18350
    2284:	31851ec4 	addi	r6,r6,5243
    2288:	01cfe134 	movhi	r7,16260
    228c:	39deb844 	addi	r7,r7,31457
    2290:	e13fea17 	ldw	r4,-88(fp)
    2294:	e17feb17 	ldw	r5,-84(fp)
    2298:	00077f80 	call	77f8 <__subdf3>
    229c:	1009883a 	mov	r4,r2
    22a0:	180b883a 	mov	r5,r3
    22a4:	e13fea15 	stw	r4,-88(fp)
    22a8:	e17feb15 	stw	r5,-84(fp)
		}

		int s_t = (int) (sin(theta) * (1 << 8));
    22ac:	e13fe817 	ldw	r4,-96(fp)
    22b0:	e17fe917 	ldw	r5,-92(fp)
    22b4:	00038b40 	call	38b4 <sin>
    22b8:	1011883a 	mov	r8,r2
    22bc:	1813883a 	mov	r9,r3
    22c0:	000d883a 	mov	r6,zero
    22c4:	01d01c34 	movhi	r7,16496
    22c8:	4009883a 	mov	r4,r8
    22cc:	480b883a 	mov	r5,r9
    22d0:	0006f8c0 	call	6f8c <__muldf3>
    22d4:	1009883a 	mov	r4,r2
    22d8:	180b883a 	mov	r5,r3
    22dc:	2005883a 	mov	r2,r4
    22e0:	2807883a 	mov	r3,r5
    22e4:	1009883a 	mov	r4,r2
    22e8:	180b883a 	mov	r5,r3
    22ec:	00080f40 	call	80f4 <__fixdfsi>
    22f0:	e0bff815 	stw	r2,-32(fp)
		int c_t = (int) (cos(theta) * (1 << 8));
    22f4:	e13fe817 	ldw	r4,-96(fp)
    22f8:	e17fe917 	ldw	r5,-92(fp)
    22fc:	00037c80 	call	37c8 <cos>
    2300:	1011883a 	mov	r8,r2
    2304:	1813883a 	mov	r9,r3
    2308:	000d883a 	mov	r6,zero
    230c:	01d01c34 	movhi	r7,16496
    2310:	4009883a 	mov	r4,r8
    2314:	480b883a 	mov	r5,r9
    2318:	0006f8c0 	call	6f8c <__muldf3>
    231c:	1009883a 	mov	r4,r2
    2320:	180b883a 	mov	r5,r3
    2324:	2005883a 	mov	r2,r4
    2328:	2807883a 	mov	r3,r5
    232c:	1009883a 	mov	r4,r2
    2330:	180b883a 	mov	r5,r3
    2334:	00080f40 	call	80f4 <__fixdfsi>
    2338:	e0bff915 	stw	r2,-28(fp)

		int s_p = (int) (sin(phi) * (1 << 8));
    233c:	e13fea17 	ldw	r4,-88(fp)
    2340:	e17feb17 	ldw	r5,-84(fp)
    2344:	00038b40 	call	38b4 <sin>
    2348:	1011883a 	mov	r8,r2
    234c:	1813883a 	mov	r9,r3
    2350:	000d883a 	mov	r6,zero
    2354:	01d01c34 	movhi	r7,16496
    2358:	4009883a 	mov	r4,r8
    235c:	480b883a 	mov	r5,r9
    2360:	0006f8c0 	call	6f8c <__muldf3>
    2364:	1009883a 	mov	r4,r2
    2368:	180b883a 	mov	r5,r3
    236c:	2005883a 	mov	r2,r4
    2370:	2807883a 	mov	r3,r5
    2374:	1009883a 	mov	r4,r2
    2378:	180b883a 	mov	r5,r3
    237c:	00080f40 	call	80f4 <__fixdfsi>
    2380:	e0bffa15 	stw	r2,-24(fp)
		int c_p = (int) (cos(phi) * (1 << 8));
    2384:	e13fea17 	ldw	r4,-88(fp)
    2388:	e17feb17 	ldw	r5,-84(fp)
    238c:	00037c80 	call	37c8 <cos>
    2390:	1011883a 	mov	r8,r2
    2394:	1813883a 	mov	r9,r3
    2398:	000d883a 	mov	r6,zero
    239c:	01d01c34 	movhi	r7,16496
    23a0:	4009883a 	mov	r4,r8
    23a4:	480b883a 	mov	r5,r9
    23a8:	0006f8c0 	call	6f8c <__muldf3>
    23ac:	1009883a 	mov	r4,r2
    23b0:	180b883a 	mov	r5,r3
    23b4:	2005883a 	mov	r2,r4
    23b8:	2807883a 	mov	r3,r5
    23bc:	1009883a 	mov	r4,r2
    23c0:	180b883a 	mov	r5,r3
    23c4:	00080f40 	call	80f4 <__fixdfsi>
    23c8:	e0bffb15 	stw	r2,-20(fp)

		//        Matrix([[cos(phi), 			0,			 sin(phi), 0],
		//                [sin(phi)*sin(theta), cos(theta), -sin(theta)*cos(phi), 0],
		//                [-sin(phi)*cos(theta), sin(theta), cos(phi)*cos(theta), 0], [0, 0, 0, 1]]

		gpu->cam_x_axis.x = c_p;
    23cc:	d0a00017 	ldw	r2,-32768(gp)
    23d0:	e0fffb17 	ldw	r3,-20(fp)
    23d4:	10c00a15 	stw	r3,40(r2)
		gpu->cam_x_axis.y = s_p * s_t / (1 << 8);
    23d8:	d4200017 	ldw	r16,-32768(gp)
    23dc:	e17ff817 	ldw	r5,-32(fp)
    23e0:	e13ffa17 	ldw	r4,-24(fp)
    23e4:	0005b840 	call	5b84 <__mulsi3>
    23e8:	1000010e 	bge	r2,zero,23f0 <main+0x778>
    23ec:	10803fc4 	addi	r2,r2,255
    23f0:	1005d23a 	srai	r2,r2,8
    23f4:	80800b15 	stw	r2,44(r16)
		gpu->cam_x_axis.z = -s_p * c_t / (1 << 8);
    23f8:	d4200017 	ldw	r16,-32768(gp)
    23fc:	e0bffa17 	ldw	r2,-24(fp)
    2400:	0085c83a 	sub	r2,zero,r2
    2404:	e17ff917 	ldw	r5,-28(fp)
    2408:	1009883a 	mov	r4,r2
    240c:	0005b840 	call	5b84 <__mulsi3>
    2410:	1000010e 	bge	r2,zero,2418 <main+0x7a0>
    2414:	10803fc4 	addi	r2,r2,255
    2418:	1005d23a 	srai	r2,r2,8
    241c:	80800c15 	stw	r2,48(r16)

		gpu->cam_y_axis.x = 0;
    2420:	d0a00017 	ldw	r2,-32768(gp)
    2424:	10000d15 	stw	zero,52(r2)
		gpu->cam_y_axis.y = c_t;
    2428:	d0a00017 	ldw	r2,-32768(gp)
    242c:	e0fff917 	ldw	r3,-28(fp)
    2430:	10c00e15 	stw	r3,56(r2)
		gpu->cam_y_axis.z = s_t;
    2434:	d0a00017 	ldw	r2,-32768(gp)
    2438:	e0fff817 	ldw	r3,-32(fp)
    243c:	10c00f15 	stw	r3,60(r2)

		gpu->cam_z_axis.x = s_p;
    2440:	d0a00017 	ldw	r2,-32768(gp)
    2444:	e0fffa17 	ldw	r3,-24(fp)
    2448:	10c01015 	stw	r3,64(r2)
		gpu->cam_z_axis.y = -s_t * c_p / (1 << 8);
    244c:	d4200017 	ldw	r16,-32768(gp)
    2450:	e0bff817 	ldw	r2,-32(fp)
    2454:	0085c83a 	sub	r2,zero,r2
    2458:	e17ffb17 	ldw	r5,-20(fp)
    245c:	1009883a 	mov	r4,r2
    2460:	0005b840 	call	5b84 <__mulsi3>
    2464:	1000010e 	bge	r2,zero,246c <main+0x7f4>
    2468:	10803fc4 	addi	r2,r2,255
    246c:	1005d23a 	srai	r2,r2,8
    2470:	80801115 	stw	r2,68(r16)
		gpu->cam_z_axis.z = c_p * c_t / (1 << 8);
    2474:	d4200017 	ldw	r16,-32768(gp)
    2478:	e17ff917 	ldw	r5,-28(fp)
    247c:	e13ffb17 	ldw	r4,-20(fp)
    2480:	0005b840 	call	5b84 <__mulsi3>
    2484:	1000010e 	bge	r2,zero,248c <main+0x814>
    2488:	10803fc4 	addi	r2,r2,255
    248c:	1005d23a 	srai	r2,r2,8
    2490:	80801215 	stw	r2,72(r16)

		last_fps = 1000.0/(clock() - frame_time);
    2494:	00086140 	call	8614 <clock>
    2498:	1007883a 	mov	r3,r2
    249c:	e0bff517 	ldw	r2,-44(fp)
    24a0:	1885c83a 	sub	r2,r3,r2
    24a4:	1009883a 	mov	r4,r2
    24a8:	00082500 	call	8250 <__floatunsidf>
    24ac:	1009883a 	mov	r4,r2
    24b0:	180b883a 	mov	r5,r3
    24b4:	200d883a 	mov	r6,r4
    24b8:	280f883a 	mov	r7,r5
    24bc:	0009883a 	mov	r4,zero
    24c0:	015023f4 	movhi	r5,16527
    24c4:	29500004 	addi	r5,r5,16384
    24c8:	00064580 	call	6458 <__divdf3>
    24cc:	1009883a 	mov	r4,r2
    24d0:	180b883a 	mov	r5,r3
    24d4:	2005883a 	mov	r2,r4
    24d8:	2807883a 	mov	r3,r5
    24dc:	1009883a 	mov	r4,r2
    24e0:	180b883a 	mov	r5,r3
    24e4:	00084080 	call	8408 <__truncdfsf2>
    24e8:	1007883a 	mov	r3,r2
    24ec:	e0ffec15 	stw	r3,-80(fp)
		//printf("Frame ticks %.2f\n", );
	}
    24f0:	003e1206 	br	1d3c <__alt_exception_stack_pointer+0xf8001d3c>

000024f4 <done>:

	return 1;
}

static void done(void* handle, void* data) {
    24f4:	defffd04 	addi	sp,sp,-12
    24f8:	df000215 	stw	fp,8(sp)
    24fc:	df000204 	addi	fp,sp,8
    2500:	e13ffe15 	stw	r4,-8(fp)
    2504:	e17fff15 	stw	r5,-4(fp)
	copy_done = 255;
    2508:	00803fc4 	movi	r2,255
    250c:	d0a8f215 	stw	r2,-23608(gp)
}
    2510:	0001883a 	nop
    2514:	e037883a 	mov	sp,fp
    2518:	df000017 	ldw	fp,0(sp)
    251c:	dec00104 	addi	sp,sp,4
    2520:	f800283a 	ret

00002524 <transfer>:

char transfer(volatile void* from, volatile void* to, alt_u32 size) {
    2524:	defff504 	addi	sp,sp,-44
    2528:	dfc00a15 	stw	ra,40(sp)
    252c:	df000915 	stw	fp,36(sp)
    2530:	df000904 	addi	fp,sp,36
    2534:	e13ffd15 	stw	r4,-12(fp)
    2538:	e17ffe15 	stw	r5,-8(fp)
    253c:	e1bfff15 	stw	r6,-4(fp)
	copy_done = 0;
    2540:	d028f215 	stw	zero,-23608(gp)
	int rc;
	alt_dma_txchan txchan;
	alt_dma_rxchan rxchan;
	void* tx_data = (void*) from; /* pointer to data to send */
    2544:	e0bffd17 	ldw	r2,-12(fp)
    2548:	e0bff815 	stw	r2,-32(fp)
	void* rx_buffer = (void*) to; /* pointer to rx buffer */
    254c:	e0bffe17 	ldw	r2,-8(fp)
    2550:	e0bff915 	stw	r2,-28(fp)
	/* Create the transmit channel */
	if ((txchan = alt_dma_txchan_open("/dev/copy_dma")) == NULL) {
    2554:	01000074 	movhi	r4,1
    2558:	211ed604 	addi	r4,r4,31576
    255c:	0013bf00 	call	13bf0 <alt_dma_txchan_open>
    2560:	e0bffa15 	stw	r2,-24(fp)
    2564:	e0bffa17 	ldw	r2,-24(fp)
    2568:	1000051e 	bne	r2,zero,2580 <transfer+0x5c>
		printf("Failed to create transmit channel");
    256c:	01000074 	movhi	r4,1
    2570:	211eda04 	addi	r4,r4,31592
    2574:	000909c0 	call	909c <printf>
		return 255;
    2578:	00bfffc4 	movi	r2,-1
    257c:	00002e06 	br	2638 <transfer+0x114>
	}
	/* Create the receive channel */
	if ((rxchan = alt_dma_rxchan_open("/dev/copy_dma")) == NULL) {
    2580:	01000074 	movhi	r4,1
    2584:	211ed604 	addi	r4,r4,31576
    2588:	0013b600 	call	13b60 <alt_dma_rxchan_open>
    258c:	e0bffb15 	stw	r2,-20(fp)
    2590:	e0bffb17 	ldw	r2,-20(fp)
    2594:	1000051e 	bne	r2,zero,25ac <transfer+0x88>
		printf("Failed to create receive channel");
    2598:	01000074 	movhi	r4,1
    259c:	211ee304 	addi	r4,r4,31628
    25a0:	000909c0 	call	909c <printf>
		return 225;
    25a4:	00bff844 	movi	r2,-31
    25a8:	00002306 	br	2638 <transfer+0x114>
	}
	/* Post the transmit request */
	if ((rc = alt_dma_txchan_send(txchan, tx_data, size, NULL, NULL)) < 0) {
    25ac:	d8000015 	stw	zero,0(sp)
    25b0:	000f883a 	mov	r7,zero
    25b4:	e1bfff17 	ldw	r6,-4(fp)
    25b8:	e17ff817 	ldw	r5,-32(fp)
    25bc:	e13ffa17 	ldw	r4,-24(fp)
    25c0:	00017e80 	call	17e8 <alt_dma_txchan_send>
    25c4:	e0bffc15 	stw	r2,-16(fp)
    25c8:	e0bffc17 	ldw	r2,-16(fp)
    25cc:	1000060e 	bge	r2,zero,25e8 <transfer+0xc4>
		printf("Failed to post transmit request, reason = %i\n", rc);
    25d0:	e17ffc17 	ldw	r5,-16(fp)
    25d4:	01000074 	movhi	r4,1
    25d8:	211eec04 	addi	r4,r4,31664
    25dc:	000909c0 	call	909c <printf>
		return 225;
    25e0:	00bff844 	movi	r2,-31
    25e4:	00001406 	br	2638 <transfer+0x114>
	}
	/* Post the receive request */
	if ((rc = alt_dma_rxchan_prepare(rxchan, rx_buffer, size, done, NULL))
    25e8:	d8000015 	stw	zero,0(sp)
    25ec:	01c00034 	movhi	r7,0
    25f0:	39c93d04 	addi	r7,r7,9460
    25f4:	e1bfff17 	ldw	r6,-4(fp)
    25f8:	e17ff917 	ldw	r5,-28(fp)
    25fc:	e13ffb17 	ldw	r4,-20(fp)
    2600:	00018500 	call	1850 <alt_dma_rxchan_prepare>
    2604:	e0bffc15 	stw	r2,-16(fp)
    2608:	e0bffc17 	ldw	r2,-16(fp)
    260c:	1000060e 	bge	r2,zero,2628 <transfer+0x104>
			< 0) {
		printf("Failed to post read request, reason = %i\n", rc);
    2610:	e17ffc17 	ldw	r5,-16(fp)
    2614:	01000074 	movhi	r4,1
    2618:	211ef804 	addi	r4,r4,31712
    261c:	000909c0 	call	909c <printf>
		return 225;
    2620:	00bff844 	movi	r2,-31
    2624:	00000406 	br	2638 <transfer+0x114>
	}
	/* wait for transfer to complete */
	while (!copy_done);
    2628:	0001883a 	nop
    262c:	d0a8f217 	ldw	r2,-23608(gp)
    2630:	103ffe26 	beq	r2,zero,262c <__alt_exception_stack_pointer+0xf800262c>
	return 0;
    2634:	0005883a 	mov	r2,zero
}
    2638:	e037883a 	mov	sp,fp
    263c:	dfc00117 	ldw	ra,4(sp)
    2640:	df000017 	ldw	fp,0(sp)
    2644:	dec00204 	addi	sp,sp,8
    2648:	f800283a 	ret

0000264c <UsbWrite>:
 *
 * @note     None
 *
 ******************************************************************************/
void UsbWrite(alt_u16 Address, alt_u16 Data)
{
    264c:	defffc04 	addi	sp,sp,-16
    2650:	dfc00315 	stw	ra,12(sp)
    2654:	df000215 	stw	fp,8(sp)
    2658:	df000204 	addi	fp,sp,8
    265c:	2007883a 	mov	r3,r4
    2660:	2805883a 	mov	r2,r5
    2664:	e0fffe0d 	sth	r3,-8(fp)
    2668:	e0bfff0d 	sth	r2,-4(fp)
	IO_write(2, Address);
    266c:	e0bffe0b 	ldhu	r2,-8(fp)
    2670:	100b883a 	mov	r5,r2
    2674:	01000084 	movi	r4,2
    2678:	00008680 	call	868 <IO_write>
	IO_write(0, Data);
    267c:	e0bfff0b 	ldhu	r2,-4(fp)
    2680:	100b883a 	mov	r5,r2
    2684:	0009883a 	mov	r4,zero
    2688:	00008680 	call	868 <IO_write>
}
    268c:	0001883a 	nop
    2690:	e037883a 	mov	sp,fp
    2694:	dfc00117 	ldw	ra,4(sp)
    2698:	df000017 	ldw	fp,0(sp)
    269c:	dec00204 	addi	sp,sp,8
    26a0:	f800283a 	ret

000026a4 <UsbRead>:
 *
 * @note     None
 *
 ******************************************************************************/
alt_u16 UsbRead(alt_u16 Address)
{
    26a4:	defffd04 	addi	sp,sp,-12
    26a8:	dfc00215 	stw	ra,8(sp)
    26ac:	df000115 	stw	fp,4(sp)
    26b0:	df000104 	addi	fp,sp,4
    26b4:	2005883a 	mov	r2,r4
    26b8:	e0bfff0d 	sth	r2,-4(fp)
	IO_write(2, Address);
    26bc:	e0bfff0b 	ldhu	r2,-4(fp)
    26c0:	100b883a 	mov	r5,r2
    26c4:	01000084 	movi	r4,2
    26c8:	00008680 	call	868 <IO_write>
	return IO_read(0);
    26cc:	0009883a 	mov	r4,zero
    26d0:	00008f00 	call	8f0 <IO_read>

}
    26d4:	e037883a 	mov	sp,fp
    26d8:	dfc00117 	ldw	ra,4(sp)
    26dc:	df000017 	ldw	fp,0(sp)
    26e0:	dec00204 	addi	sp,sp,8
    26e4:	f800283a 	ret

000026e8 <UsbSoftReset>:
 *
 * @note     None
 *
 ******************************************************************************/
void UsbSoftReset()
{
    26e8:	defffe04 	addi	sp,sp,-8
    26ec:	dfc00115 	stw	ra,4(sp)
    26f0:	df000015 	stw	fp,0(sp)
    26f4:	d839883a 	mov	fp,sp
	//XIo_Out16(USB_MAILBOX, COMM_RESET);
	IO_write(HPI_MAILBOX,COMM_RESET); //COMM_JUMP2CODE
    26f8:	017e9414 	movui	r5,64080
    26fc:	01000044 	movi	r4,1
    2700:	00008680 	call	868 <IO_write>
	usleep(100000);
    2704:	010000b4 	movhi	r4,2
    2708:	2121a804 	addi	r4,r4,-31072
    270c:	00144a00 	call	144a0 <usleep>
	printf("[USB INIT]:reset finished!\n");
    2710:	01000074 	movhi	r4,1
    2714:	211f0304 	addi	r4,r4,31756
    2718:	00091980 	call	9198 <puts>

	usleep(500000);
    271c:	01000234 	movhi	r4,8
    2720:	21284804 	addi	r4,r4,-24288
    2724:	00144a00 	call	144a0 <usleep>
	printf("[USB INIT]:Clear up the interrupt\r\n");
    2728:	01000074 	movhi	r4,1
    272c:	211f0a04 	addi	r4,r4,31784
    2730:	00091980 	call	9198 <puts>
	IO_read(HPI_MAILBOX);
    2734:	01000044 	movi	r4,1
    2738:	00008f00 	call	8f0 <IO_read>
	IO_read(HPI_STATUS);
    273c:	010000c4 	movi	r4,3
    2740:	00008f00 	call	8f0 <IO_read>

	// Had to add the write due to a bug in BIOS where they overwrite
	// the mailbox after initialization with garbage.  The read clears
	// any pending interrupts.
	UsbRead (HPI_SIE1_MSG_ADR);
    2744:	01005104 	movi	r4,324
    2748:	00026a40 	call	26a4 <UsbRead>
	UsbWrite (HPI_SIE1_MSG_ADR, 0);
    274c:	000b883a 	mov	r5,zero
    2750:	01005104 	movi	r4,324
    2754:	000264c0 	call	264c <UsbWrite>
	UsbRead (HPI_SIE2_MSG_ADR);
    2758:	01005204 	movi	r4,328
    275c:	00026a40 	call	26a4 <UsbRead>
	UsbWrite (HPI_SIE2_MSG_ADR, 0);
    2760:	000b883a 	mov	r5,zero
    2764:	01005204 	movi	r4,328
    2768:	000264c0 	call	264c <UsbWrite>


	UsbWrite (HOST1_STAT_REG, 0xFFFF);
    276c:	017fffd4 	movui	r5,65535
    2770:	01302414 	movui	r4,49296
    2774:	000264c0 	call	264c <UsbWrite>
	UsbWrite (HOST2_STAT_REG, 0xFFFF);
    2778:	017fffd4 	movui	r5,65535
    277c:	01302c14 	movui	r4,49328
    2780:	000264c0 	call	264c <UsbWrite>
}
    2784:	0001883a 	nop
    2788:	e037883a 	mov	sp,fp
    278c:	dfc00117 	ldw	ra,4(sp)
    2790:	df000017 	ldw	fp,0(sp)
    2794:	dec00204 	addi	sp,sp,8
    2798:	f800283a 	ret

0000279c <UsbSetAddress>:


void UsbSetAddress()
{
    279c:	defffe04 	addi	sp,sp,-8
    27a0:	dfc00115 	stw	ra,4(sp)
    27a4:	df000015 	stw	fp,0(sp)
    27a8:	d839883a 	mov	fp,sp
	//the starting address
	IO_write(HPI_ADDR,0x0500); //the start address
    27ac:	01414004 	movi	r5,1280
    27b0:	01000084 	movi	r4,2
    27b4:	00008680 	call	868 <IO_write>
	// TD #1: 6 writes
	IO_write(HPI_DATA,0x050C);
    27b8:	01414304 	movi	r5,1292
    27bc:	0009883a 	mov	r4,zero
    27c0:	00008680 	call	868 <IO_write>
	IO_write(HPI_DATA,0x0008); //4 port number
    27c4:	01400204 	movi	r5,8
    27c8:	0009883a 	mov	r4,zero
    27cc:	00008680 	call	868 <IO_write>
	// TASK: Complete with 4 more IOWR functions
	IO_write(HPI_DATA,0x00D0);
    27d0:	01403404 	movi	r5,208
    27d4:	0009883a 	mov	r4,zero
    27d8:	00008680 	call	868 <IO_write>
	IO_write(HPI_DATA,0x0001);
    27dc:	01400044 	movi	r5,1
    27e0:	0009883a 	mov	r4,zero
    27e4:	00008680 	call	868 <IO_write>
	IO_write(HPI_DATA,0x0013);
    27e8:	014004c4 	movi	r5,19
    27ec:	0009883a 	mov	r4,zero
    27f0:	00008680 	call	868 <IO_write>
	IO_write(HPI_DATA,0x0514);
    27f4:	01414504 	movi	r5,1300
    27f8:	0009883a 	mov	r4,zero
    27fc:	00008680 	call	868 <IO_write>
	// TD #2: 4 writes
	// TASK: Complete with 4 IOWR functions
	IO_write(HPI_DATA,0x0500);
    2800:	01414004 	movi	r5,1280
    2804:	0009883a 	mov	r4,zero
    2808:	00008680 	call	868 <IO_write>
	IO_write(HPI_DATA,0x0002);
    280c:	01400084 	movi	r5,2
    2810:	0009883a 	mov	r4,zero
    2814:	00008680 	call	868 <IO_write>
	IO_write(HPI_DATA,0x0000);
    2818:	000b883a 	mov	r5,zero
    281c:	0009883a 	mov	r4,zero
    2820:	00008680 	call	868 <IO_write>
	IO_write(HPI_DATA,0x0000);
    2824:	000b883a 	mov	r5,zero
    2828:	0009883a 	mov	r4,zero
    282c:	00008680 	call	868 <IO_write>
	// TD #3: 6 writes
	// TASK: Complete with 6 IOWR functions
	IO_write(HPI_DATA,0x0000); //
    2830:	000b883a 	mov	r5,zero
    2834:	0009883a 	mov	r4,zero
    2838:	00008680 	call	868 <IO_write>
	IO_write(HPI_DATA,0x0000);//
    283c:	000b883a 	mov	r5,zero
    2840:	0009883a 	mov	r4,zero
    2844:	00008680 	call	868 <IO_write>
	IO_write(HPI_DATA,0x0090);//
    2848:	01402404 	movi	r5,144
    284c:	0009883a 	mov	r4,zero
    2850:	00008680 	call	868 <IO_write>
	IO_write(HPI_DATA,0x0041);
    2854:	01401044 	movi	r5,65
    2858:	0009883a 	mov	r4,zero
    285c:	00008680 	call	868 <IO_write>
	IO_write(HPI_DATA,0x0013);
    2860:	014004c4 	movi	r5,19
    2864:	0009883a 	mov	r4,zero
    2868:	00008680 	call	868 <IO_write>
	IO_write(HPI_DATA,0x0000);
    286c:	000b883a 	mov	r5,zero
    2870:	0009883a 	mov	r4,zero
    2874:	00008680 	call	868 <IO_write>

	UsbWrite(HUSB_SIE1_pCurrentTDPtr,0x0500); //HUSB_SIE1_pCurrentTDPtr
    2878:	01414004 	movi	r5,1280
    287c:	01006c04 	movi	r4,432
    2880:	000264c0 	call	264c <UsbWrite>
}
    2884:	0001883a 	nop
    2888:	e037883a 	mov	sp,fp
    288c:	dfc00117 	ldw	ra,4(sp)
    2890:	df000017 	ldw	fp,0(sp)
    2894:	dec00204 	addi	sp,sp,8
    2898:	f800283a 	ret

0000289c <UsbGetDeviceDesc1>:


void UsbGetDeviceDesc1()
{
    289c:	defffe04 	addi	sp,sp,-8
    28a0:	dfc00115 	stw	ra,4(sp)
    28a4:	df000015 	stw	fp,0(sp)
    28a8:	d839883a 	mov	fp,sp
	//the starting address
	IO_write(HPI_ADDR,0x0500); //the start address
    28ac:	01414004 	movi	r5,1280
    28b0:	01000084 	movi	r4,2
    28b4:	00008680 	call	868 <IO_write>
	IO_write(HPI_DATA,0x050C);
    28b8:	01414304 	movi	r5,1292
    28bc:	0009883a 	mov	r4,zero
    28c0:	00008680 	call	868 <IO_write>
	IO_write(HPI_DATA,0x0008); //4 port number
    28c4:	01400204 	movi	r5,8
    28c8:	0009883a 	mov	r4,zero
    28cc:	00008680 	call	868 <IO_write>
	IO_write(HPI_DATA,0x02D0); //device address
    28d0:	0140b404 	movi	r5,720
    28d4:	0009883a 	mov	r4,zero
    28d8:	00008680 	call	868 <IO_write>
	IO_write(HPI_DATA,0x0001);
    28dc:	01400044 	movi	r5,1
    28e0:	0009883a 	mov	r4,zero
    28e4:	00008680 	call	868 <IO_write>
	IO_write(HPI_DATA,0x0013);
    28e8:	014004c4 	movi	r5,19
    28ec:	0009883a 	mov	r4,zero
    28f0:	00008680 	call	868 <IO_write>
	IO_write(HPI_DATA,0x0514);
    28f4:	01414504 	movi	r5,1300
    28f8:	0009883a 	mov	r4,zero
    28fc:	00008680 	call	868 <IO_write>

	//td content 4 bytes
	IO_write(HPI_DATA,0x0680);//c
    2900:	0141a004 	movi	r5,1664
    2904:	0009883a 	mov	r4,zero
    2908:	00008680 	call	868 <IO_write>
	IO_write(HPI_DATA,0x0100); //device 0x01
    290c:	01404004 	movi	r5,256
    2910:	0009883a 	mov	r4,zero
    2914:	00008680 	call	868 <IO_write>
	IO_write(HPI_DATA,0x0000);
    2918:	000b883a 	mov	r5,zero
    291c:	0009883a 	mov	r4,zero
    2920:	00008680 	call	868 <IO_write>
	IO_write(HPI_DATA,0x0008);
    2924:	01400204 	movi	r5,8
    2928:	0009883a 	mov	r4,zero
    292c:	00008680 	call	868 <IO_write>

	//data phase IN
	IO_write(HPI_DATA,0x052C); //
    2930:	01414b04 	movi	r5,1324
    2934:	0009883a 	mov	r4,zero
    2938:	00008680 	call	868 <IO_write>
	IO_write(HPI_DATA,0x0008);//
    293c:	01400204 	movi	r5,8
    2940:	0009883a 	mov	r4,zero
    2944:	00008680 	call	868 <IO_write>
	IO_write(HPI_DATA,0x0290);//
    2948:	0140a404 	movi	r5,656
    294c:	0009883a 	mov	r4,zero
    2950:	00008680 	call	868 <IO_write>
	IO_write(HPI_DATA,0x0041);
    2954:	01401044 	movi	r5,65
    2958:	0009883a 	mov	r4,zero
    295c:	00008680 	call	868 <IO_write>
	IO_write(HPI_DATA,0x0013);
    2960:	014004c4 	movi	r5,19
    2964:	0009883a 	mov	r4,zero
    2968:	00008680 	call	868 <IO_write>
	IO_write(HPI_DATA,0x0520);
    296c:	01414804 	movi	r5,1312
    2970:	0009883a 	mov	r4,zero
    2974:	00008680 	call	868 <IO_write>

	//    //status phase
	IO_write(HPI_DATA,0x0000); //don't care
    2978:	000b883a 	mov	r5,zero
    297c:	0009883a 	mov	r4,zero
    2980:	00008680 	call	868 <IO_write>
	IO_write(HPI_DATA,0x0000);//port number
    2984:	000b883a 	mov	r5,zero
    2988:	0009883a 	mov	r4,zero
    298c:	00008680 	call	868 <IO_write>
	IO_write(HPI_DATA,0x0210);//device address
    2990:	01408404 	movi	r5,528
    2994:	0009883a 	mov	r4,zero
    2998:	00008680 	call	868 <IO_write>
	IO_write(HPI_DATA,0x0041);
    299c:	01401044 	movi	r5,65
    29a0:	0009883a 	mov	r4,zero
    29a4:	00008680 	call	868 <IO_write>
	IO_write(HPI_DATA,0x0013);
    29a8:	014004c4 	movi	r5,19
    29ac:	0009883a 	mov	r4,zero
    29b0:	00008680 	call	868 <IO_write>
	IO_write(HPI_DATA,0x0000);
    29b4:	000b883a 	mov	r5,zero
    29b8:	0009883a 	mov	r4,zero
    29bc:	00008680 	call	868 <IO_write>

	UsbWrite(HUSB_SIE1_pCurrentTDPtr,0x0500); //HUSB_SIE1_pCurrentTDPtr
    29c0:	01414004 	movi	r5,1280
    29c4:	01006c04 	movi	r4,432
    29c8:	000264c0 	call	264c <UsbWrite>
}
    29cc:	0001883a 	nop
    29d0:	e037883a 	mov	sp,fp
    29d4:	dfc00117 	ldw	ra,4(sp)
    29d8:	df000017 	ldw	fp,0(sp)
    29dc:	dec00204 	addi	sp,sp,8
    29e0:	f800283a 	ret

000029e4 <UsbGetDeviceDesc2>:

void UsbGetDeviceDesc2()
{
    29e4:	defffe04 	addi	sp,sp,-8
    29e8:	dfc00115 	stw	ra,4(sp)
    29ec:	df000015 	stw	fp,0(sp)
    29f0:	d839883a 	mov	fp,sp
	//the starting address
	IO_write(HPI_ADDR,0x0500); //the start address
    29f4:	01414004 	movi	r5,1280
    29f8:	01000084 	movi	r4,2
    29fc:	00008680 	call	868 <IO_write>
	IO_write(HPI_DATA,0x050C);
    2a00:	01414304 	movi	r5,1292
    2a04:	0009883a 	mov	r4,zero
    2a08:	00008680 	call	868 <IO_write>
	IO_write(HPI_DATA,0x0008); //4 port number
    2a0c:	01400204 	movi	r5,8
    2a10:	0009883a 	mov	r4,zero
    2a14:	00008680 	call	868 <IO_write>
	IO_write(HPI_DATA,0x02D0); //device address
    2a18:	0140b404 	movi	r5,720
    2a1c:	0009883a 	mov	r4,zero
    2a20:	00008680 	call	868 <IO_write>
	IO_write(HPI_DATA,0x0001);
    2a24:	01400044 	movi	r5,1
    2a28:	0009883a 	mov	r4,zero
    2a2c:	00008680 	call	868 <IO_write>
	IO_write(HPI_DATA,0x0013);
    2a30:	014004c4 	movi	r5,19
    2a34:	0009883a 	mov	r4,zero
    2a38:	00008680 	call	868 <IO_write>
	IO_write(HPI_DATA,0x0514);
    2a3c:	01414504 	movi	r5,1300
    2a40:	0009883a 	mov	r4,zero
    2a44:	00008680 	call	868 <IO_write>

	//td content 4 bytes
	IO_write(HPI_DATA,0x0680);//c
    2a48:	0141a004 	movi	r5,1664
    2a4c:	0009883a 	mov	r4,zero
    2a50:	00008680 	call	868 <IO_write>
	IO_write(HPI_DATA,0x0100);//e //device 0x01
    2a54:	01404004 	movi	r5,256
    2a58:	0009883a 	mov	r4,zero
    2a5c:	00008680 	call	868 <IO_write>
	IO_write(HPI_DATA,0x0000);//0
    2a60:	000b883a 	mov	r5,zero
    2a64:	0009883a 	mov	r4,zero
    2a68:	00008680 	call	868 <IO_write>
	IO_write(HPI_DATA,0x0012);//2
    2a6c:	01400484 	movi	r5,18
    2a70:	0009883a 	mov	r4,zero
    2a74:	00008680 	call	868 <IO_write>

	//data phase IN-1
	IO_write(HPI_DATA,0x0544); //514
    2a78:	01415104 	movi	r5,1348
    2a7c:	0009883a 	mov	r4,zero
    2a80:	00008680 	call	868 <IO_write>
	IO_write(HPI_DATA,0x0008);//6
    2a84:	01400204 	movi	r5,8
    2a88:	0009883a 	mov	r4,zero
    2a8c:	00008680 	call	868 <IO_write>
	IO_write(HPI_DATA,0x0290);//8
    2a90:	0140a404 	movi	r5,656
    2a94:	0009883a 	mov	r4,zero
    2a98:	00008680 	call	868 <IO_write>
	IO_write(HPI_DATA,0x0041);//a
    2a9c:	01401044 	movi	r5,65
    2aa0:	0009883a 	mov	r4,zero
    2aa4:	00008680 	call	868 <IO_write>
	IO_write(HPI_DATA,0x0013);//c
    2aa8:	014004c4 	movi	r5,19
    2aac:	0009883a 	mov	r4,zero
    2ab0:	00008680 	call	868 <IO_write>
	IO_write(HPI_DATA,0x0520);//e
    2ab4:	01414804 	movi	r5,1312
    2ab8:	0009883a 	mov	r4,zero
    2abc:	00008680 	call	868 <IO_write>

	//data phase IN-2
	IO_write(HPI_DATA,0x054c); //520
    2ac0:	01415304 	movi	r5,1356
    2ac4:	0009883a 	mov	r4,zero
    2ac8:	00008680 	call	868 <IO_write>
	IO_write(HPI_DATA,0x0008);//2
    2acc:	01400204 	movi	r5,8
    2ad0:	0009883a 	mov	r4,zero
    2ad4:	00008680 	call	868 <IO_write>
	IO_write(HPI_DATA,0x0290);//4
    2ad8:	0140a404 	movi	r5,656
    2adc:	0009883a 	mov	r4,zero
    2ae0:	00008680 	call	868 <IO_write>
	IO_write(HPI_DATA,0x0001);//6
    2ae4:	01400044 	movi	r5,1
    2ae8:	0009883a 	mov	r4,zero
    2aec:	00008680 	call	868 <IO_write>
	IO_write(HPI_DATA,0x0013);//8
    2af0:	014004c4 	movi	r5,19
    2af4:	0009883a 	mov	r4,zero
    2af8:	00008680 	call	868 <IO_write>
	IO_write(HPI_DATA,0x052c);//a
    2afc:	01414b04 	movi	r5,1324
    2b00:	0009883a 	mov	r4,zero
    2b04:	00008680 	call	868 <IO_write>

	//data phase IN-3
	IO_write(HPI_DATA,0x0554); //c
    2b08:	01415504 	movi	r5,1364
    2b0c:	0009883a 	mov	r4,zero
    2b10:	00008680 	call	868 <IO_write>
	IO_write(HPI_DATA,0x0002);//e
    2b14:	01400084 	movi	r5,2
    2b18:	0009883a 	mov	r4,zero
    2b1c:	00008680 	call	868 <IO_write>
	IO_write(HPI_DATA,0x0290);//530
    2b20:	0140a404 	movi	r5,656
    2b24:	0009883a 	mov	r4,zero
    2b28:	00008680 	call	868 <IO_write>
	IO_write(HPI_DATA,0x0041);//2
    2b2c:	01401044 	movi	r5,65
    2b30:	0009883a 	mov	r4,zero
    2b34:	00008680 	call	868 <IO_write>
	IO_write(HPI_DATA,0x0013);//4
    2b38:	014004c4 	movi	r5,19
    2b3c:	0009883a 	mov	r4,zero
    2b40:	00008680 	call	868 <IO_write>
	IO_write(HPI_DATA,0x0538);//6
    2b44:	01414e04 	movi	r5,1336
    2b48:	0009883a 	mov	r4,zero
    2b4c:	00008680 	call	868 <IO_write>

	//status phase
	IO_write(HPI_DATA,0x0000); //538
    2b50:	000b883a 	mov	r5,zero
    2b54:	0009883a 	mov	r4,zero
    2b58:	00008680 	call	868 <IO_write>
	IO_write(HPI_DATA,0x0000);//a
    2b5c:	000b883a 	mov	r5,zero
    2b60:	0009883a 	mov	r4,zero
    2b64:	00008680 	call	868 <IO_write>
	IO_write(HPI_DATA,0x0210);//c
    2b68:	01408404 	movi	r5,528
    2b6c:	0009883a 	mov	r4,zero
    2b70:	00008680 	call	868 <IO_write>
	IO_write(HPI_DATA,0x0041);//e
    2b74:	01401044 	movi	r5,65
    2b78:	0009883a 	mov	r4,zero
    2b7c:	00008680 	call	868 <IO_write>
	IO_write(HPI_DATA,0x0013);//540
    2b80:	014004c4 	movi	r5,19
    2b84:	0009883a 	mov	r4,zero
    2b88:	00008680 	call	868 <IO_write>
	IO_write(HPI_DATA,0x0000);//2
    2b8c:	000b883a 	mov	r5,zero
    2b90:	0009883a 	mov	r4,zero
    2b94:	00008680 	call	868 <IO_write>

	UsbWrite(HUSB_SIE1_pCurrentTDPtr,0x0500); //HUSB_SIE1_pCurrentTDPtr
    2b98:	01414004 	movi	r5,1280
    2b9c:	01006c04 	movi	r4,432
    2ba0:	000264c0 	call	264c <UsbWrite>
}
    2ba4:	0001883a 	nop
    2ba8:	e037883a 	mov	sp,fp
    2bac:	dfc00117 	ldw	ra,4(sp)
    2bb0:	df000017 	ldw	fp,0(sp)
    2bb4:	dec00204 	addi	sp,sp,8
    2bb8:	f800283a 	ret

00002bbc <UsbGetConfigDesc1>:


void UsbGetConfigDesc1()
{
    2bbc:	defffe04 	addi	sp,sp,-8
    2bc0:	dfc00115 	stw	ra,4(sp)
    2bc4:	df000015 	stw	fp,0(sp)
    2bc8:	d839883a 	mov	fp,sp
	//the starting address
	IO_write(HPI_ADDR,0x0500); //the start address
    2bcc:	01414004 	movi	r5,1280
    2bd0:	01000084 	movi	r4,2
    2bd4:	00008680 	call	868 <IO_write>
	IO_write(HPI_DATA,0x050C);
    2bd8:	01414304 	movi	r5,1292
    2bdc:	0009883a 	mov	r4,zero
    2be0:	00008680 	call	868 <IO_write>
	IO_write(HPI_DATA,0x0008); //4 port number
    2be4:	01400204 	movi	r5,8
    2be8:	0009883a 	mov	r4,zero
    2bec:	00008680 	call	868 <IO_write>
	IO_write(HPI_DATA,0x02D0); //device address
    2bf0:	0140b404 	movi	r5,720
    2bf4:	0009883a 	mov	r4,zero
    2bf8:	00008680 	call	868 <IO_write>
	IO_write(HPI_DATA,0x0001);
    2bfc:	01400044 	movi	r5,1
    2c00:	0009883a 	mov	r4,zero
    2c04:	00008680 	call	868 <IO_write>
	IO_write(HPI_DATA,0x0013);
    2c08:	014004c4 	movi	r5,19
    2c0c:	0009883a 	mov	r4,zero
    2c10:	00008680 	call	868 <IO_write>
	IO_write(HPI_DATA,0x0514);
    2c14:	01414504 	movi	r5,1300
    2c18:	0009883a 	mov	r4,zero
    2c1c:	00008680 	call	868 <IO_write>

	//td content 4 bytes
	IO_write(HPI_DATA,0x0680);//c
    2c20:	0141a004 	movi	r5,1664
    2c24:	0009883a 	mov	r4,zero
    2c28:	00008680 	call	868 <IO_write>
	IO_write(HPI_DATA,0x0200);//e //config 0x02
    2c2c:	01408004 	movi	r5,512
    2c30:	0009883a 	mov	r4,zero
    2c34:	00008680 	call	868 <IO_write>
	IO_write(HPI_DATA,0x0000);//0
    2c38:	000b883a 	mov	r5,zero
    2c3c:	0009883a 	mov	r4,zero
    2c40:	00008680 	call	868 <IO_write>
	IO_write(HPI_DATA,0x0009);//2
    2c44:	01400244 	movi	r5,9
    2c48:	0009883a 	mov	r4,zero
    2c4c:	00008680 	call	868 <IO_write>

	//data phase IN-1
	IO_write(HPI_DATA,0x0544); //514
    2c50:	01415104 	movi	r5,1348
    2c54:	0009883a 	mov	r4,zero
    2c58:	00008680 	call	868 <IO_write>
	IO_write(HPI_DATA,0x0008);//6
    2c5c:	01400204 	movi	r5,8
    2c60:	0009883a 	mov	r4,zero
    2c64:	00008680 	call	868 <IO_write>
	IO_write(HPI_DATA,0x0290);//8
    2c68:	0140a404 	movi	r5,656
    2c6c:	0009883a 	mov	r4,zero
    2c70:	00008680 	call	868 <IO_write>
	IO_write(HPI_DATA,0x0041);//a
    2c74:	01401044 	movi	r5,65
    2c78:	0009883a 	mov	r4,zero
    2c7c:	00008680 	call	868 <IO_write>
	IO_write(HPI_DATA,0x0013);//c
    2c80:	014004c4 	movi	r5,19
    2c84:	0009883a 	mov	r4,zero
    2c88:	00008680 	call	868 <IO_write>
	IO_write(HPI_DATA,0x0520);//e
    2c8c:	01414804 	movi	r5,1312
    2c90:	0009883a 	mov	r4,zero
    2c94:	00008680 	call	868 <IO_write>

	//data phase IN-2
	IO_write(HPI_DATA,0x054c); //520
    2c98:	01415304 	movi	r5,1356
    2c9c:	0009883a 	mov	r4,zero
    2ca0:	00008680 	call	868 <IO_write>
	IO_write(HPI_DATA,0x0001);//2
    2ca4:	01400044 	movi	r5,1
    2ca8:	0009883a 	mov	r4,zero
    2cac:	00008680 	call	868 <IO_write>
	IO_write(HPI_DATA,0x0290);//4
    2cb0:	0140a404 	movi	r5,656
    2cb4:	0009883a 	mov	r4,zero
    2cb8:	00008680 	call	868 <IO_write>
	IO_write(HPI_DATA,0x0001);//6 //data0
    2cbc:	01400044 	movi	r5,1
    2cc0:	0009883a 	mov	r4,zero
    2cc4:	00008680 	call	868 <IO_write>
	IO_write(HPI_DATA,0x0013);//8
    2cc8:	014004c4 	movi	r5,19
    2ccc:	0009883a 	mov	r4,zero
    2cd0:	00008680 	call	868 <IO_write>
	IO_write(HPI_DATA,0x052c);//a
    2cd4:	01414b04 	movi	r5,1324
    2cd8:	0009883a 	mov	r4,zero
    2cdc:	00008680 	call	868 <IO_write>

	//status phase
	IO_write(HPI_DATA,0x0000); //52c
    2ce0:	000b883a 	mov	r5,zero
    2ce4:	0009883a 	mov	r4,zero
    2ce8:	00008680 	call	868 <IO_write>
	IO_write(HPI_DATA,0x0000);//e
    2cec:	000b883a 	mov	r5,zero
    2cf0:	0009883a 	mov	r4,zero
    2cf4:	00008680 	call	868 <IO_write>
	IO_write(HPI_DATA,0x0210);//530
    2cf8:	01408404 	movi	r5,528
    2cfc:	0009883a 	mov	r4,zero
    2d00:	00008680 	call	868 <IO_write>
	IO_write(HPI_DATA,0x0041);//2
    2d04:	01401044 	movi	r5,65
    2d08:	0009883a 	mov	r4,zero
    2d0c:	00008680 	call	868 <IO_write>
	IO_write(HPI_DATA,0x0013);//4
    2d10:	014004c4 	movi	r5,19
    2d14:	0009883a 	mov	r4,zero
    2d18:	00008680 	call	868 <IO_write>
	IO_write(HPI_DATA,0x0000);//6
    2d1c:	000b883a 	mov	r5,zero
    2d20:	0009883a 	mov	r4,zero
    2d24:	00008680 	call	868 <IO_write>

	UsbWrite(HUSB_SIE1_pCurrentTDPtr,0x0500); //HUSB_SIE1_pCurrentTDPtr
    2d28:	01414004 	movi	r5,1280
    2d2c:	01006c04 	movi	r4,432
    2d30:	000264c0 	call	264c <UsbWrite>
}
    2d34:	0001883a 	nop
    2d38:	e037883a 	mov	sp,fp
    2d3c:	dfc00117 	ldw	ra,4(sp)
    2d40:	df000017 	ldw	fp,0(sp)
    2d44:	dec00204 	addi	sp,sp,8
    2d48:	f800283a 	ret

00002d4c <UsbGetConfigDesc2>:


void UsbGetConfigDesc2()
{
    2d4c:	defffe04 	addi	sp,sp,-8
    2d50:	dfc00115 	stw	ra,4(sp)
    2d54:	df000015 	stw	fp,0(sp)
    2d58:	d839883a 	mov	fp,sp
	//the starting address
	IO_write(HPI_ADDR,0x0500); //the start address
    2d5c:	01414004 	movi	r5,1280
    2d60:	01000084 	movi	r4,2
    2d64:	00008680 	call	868 <IO_write>
	IO_write(HPI_DATA,0x050C);
    2d68:	01414304 	movi	r5,1292
    2d6c:	0009883a 	mov	r4,zero
    2d70:	00008680 	call	868 <IO_write>
	IO_write(HPI_DATA,0x0008); //4 port number
    2d74:	01400204 	movi	r5,8
    2d78:	0009883a 	mov	r4,zero
    2d7c:	00008680 	call	868 <IO_write>
	IO_write(HPI_DATA,0x02D0); //device address
    2d80:	0140b404 	movi	r5,720
    2d84:	0009883a 	mov	r4,zero
    2d88:	00008680 	call	868 <IO_write>
	IO_write(HPI_DATA,0x0001);
    2d8c:	01400044 	movi	r5,1
    2d90:	0009883a 	mov	r4,zero
    2d94:	00008680 	call	868 <IO_write>
	IO_write(HPI_DATA,0x0013);
    2d98:	014004c4 	movi	r5,19
    2d9c:	0009883a 	mov	r4,zero
    2da0:	00008680 	call	868 <IO_write>
	IO_write(HPI_DATA,0x0514);
    2da4:	01414504 	movi	r5,1300
    2da8:	0009883a 	mov	r4,zero
    2dac:	00008680 	call	868 <IO_write>

	//td content 4 bytes
	IO_write(HPI_DATA,0x0680);//c
    2db0:	0141a004 	movi	r5,1664
    2db4:	0009883a 	mov	r4,zero
    2db8:	00008680 	call	868 <IO_write>
	IO_write(HPI_DATA,0x0200);//e //config 0x02
    2dbc:	01408004 	movi	r5,512
    2dc0:	0009883a 	mov	r4,zero
    2dc4:	00008680 	call	868 <IO_write>
	IO_write(HPI_DATA,0x0000);//0
    2dc8:	000b883a 	mov	r5,zero
    2dcc:	0009883a 	mov	r4,zero
    2dd0:	00008680 	call	868 <IO_write>
	IO_write(HPI_DATA,0x00FF);//2
    2dd4:	01403fc4 	movi	r5,255
    2dd8:	0009883a 	mov	r4,zero
    2ddc:	00008680 	call	868 <IO_write>

	//data phase IN-1
	IO_write(HPI_DATA,0x055c); //514
    2de0:	01415704 	movi	r5,1372
    2de4:	0009883a 	mov	r4,zero
    2de8:	00008680 	call	868 <IO_write>
	IO_write(HPI_DATA,0x0008);//6
    2dec:	01400204 	movi	r5,8
    2df0:	0009883a 	mov	r4,zero
    2df4:	00008680 	call	868 <IO_write>
	IO_write(HPI_DATA,0x0290);//8
    2df8:	0140a404 	movi	r5,656
    2dfc:	0009883a 	mov	r4,zero
    2e00:	00008680 	call	868 <IO_write>
	IO_write(HPI_DATA,0x0041);//a
    2e04:	01401044 	movi	r5,65
    2e08:	0009883a 	mov	r4,zero
    2e0c:	00008680 	call	868 <IO_write>
	IO_write(HPI_DATA,0x0013);//c
    2e10:	014004c4 	movi	r5,19
    2e14:	0009883a 	mov	r4,zero
    2e18:	00008680 	call	868 <IO_write>
	IO_write(HPI_DATA,0x0520);//e
    2e1c:	01414804 	movi	r5,1312
    2e20:	0009883a 	mov	r4,zero
    2e24:	00008680 	call	868 <IO_write>

	//data phase IN-2
	IO_write(HPI_DATA,0x0564); //520
    2e28:	01415904 	movi	r5,1380
    2e2c:	0009883a 	mov	r4,zero
    2e30:	00008680 	call	868 <IO_write>
	IO_write(HPI_DATA,0x0008);//2
    2e34:	01400204 	movi	r5,8
    2e38:	0009883a 	mov	r4,zero
    2e3c:	00008680 	call	868 <IO_write>
	IO_write(HPI_DATA,0x0290);//4
    2e40:	0140a404 	movi	r5,656
    2e44:	0009883a 	mov	r4,zero
    2e48:	00008680 	call	868 <IO_write>
	IO_write(HPI_DATA,0x0001);//6 //data0
    2e4c:	01400044 	movi	r5,1
    2e50:	0009883a 	mov	r4,zero
    2e54:	00008680 	call	868 <IO_write>
	IO_write(HPI_DATA,0x0013);//8
    2e58:	014004c4 	movi	r5,19
    2e5c:	0009883a 	mov	r4,zero
    2e60:	00008680 	call	868 <IO_write>
	IO_write(HPI_DATA,0x052c);//a
    2e64:	01414b04 	movi	r5,1324
    2e68:	0009883a 	mov	r4,zero
    2e6c:	00008680 	call	868 <IO_write>

	//data phase IN-3
	IO_write(HPI_DATA,0x056c); //52c
    2e70:	01415b04 	movi	r5,1388
    2e74:	0009883a 	mov	r4,zero
    2e78:	00008680 	call	868 <IO_write>
	IO_write(HPI_DATA,0x0008);//e
    2e7c:	01400204 	movi	r5,8
    2e80:	0009883a 	mov	r4,zero
    2e84:	00008680 	call	868 <IO_write>
	IO_write(HPI_DATA,0x0290);//530
    2e88:	0140a404 	movi	r5,656
    2e8c:	0009883a 	mov	r4,zero
    2e90:	00008680 	call	868 <IO_write>
	IO_write(HPI_DATA,0x0041);//2
    2e94:	01401044 	movi	r5,65
    2e98:	0009883a 	mov	r4,zero
    2e9c:	00008680 	call	868 <IO_write>
	IO_write(HPI_DATA,0x0013);//4
    2ea0:	014004c4 	movi	r5,19
    2ea4:	0009883a 	mov	r4,zero
    2ea8:	00008680 	call	868 <IO_write>
	IO_write(HPI_DATA,0x0538);//6
    2eac:	01414e04 	movi	r5,1336
    2eb0:	0009883a 	mov	r4,zero
    2eb4:	00008680 	call	868 <IO_write>

	//data phase IN-4
	IO_write(HPI_DATA,0x0574); //538
    2eb8:	01415d04 	movi	r5,1396
    2ebc:	0009883a 	mov	r4,zero
    2ec0:	00008680 	call	868 <IO_write>
	IO_write(HPI_DATA,0x0008);//a
    2ec4:	01400204 	movi	r5,8
    2ec8:	0009883a 	mov	r4,zero
    2ecc:	00008680 	call	868 <IO_write>
	IO_write(HPI_DATA,0x0290);//c
    2ed0:	0140a404 	movi	r5,656
    2ed4:	0009883a 	mov	r4,zero
    2ed8:	00008680 	call	868 <IO_write>
	IO_write(HPI_DATA,0x0001);//e //data0
    2edc:	01400044 	movi	r5,1
    2ee0:	0009883a 	mov	r4,zero
    2ee4:	00008680 	call	868 <IO_write>
	IO_write(HPI_DATA,0x0013);//540
    2ee8:	014004c4 	movi	r5,19
    2eec:	0009883a 	mov	r4,zero
    2ef0:	00008680 	call	868 <IO_write>
	IO_write(HPI_DATA,0x0544);//2
    2ef4:	01415104 	movi	r5,1348
    2ef8:	0009883a 	mov	r4,zero
    2efc:	00008680 	call	868 <IO_write>

	//data phase IN-5
	IO_write(HPI_DATA,0x057c); //544
    2f00:	01415f04 	movi	r5,1404
    2f04:	0009883a 	mov	r4,zero
    2f08:	00008680 	call	868 <IO_write>
	IO_write(HPI_DATA,0x0002);//6
    2f0c:	01400084 	movi	r5,2
    2f10:	0009883a 	mov	r4,zero
    2f14:	00008680 	call	868 <IO_write>
	IO_write(HPI_DATA,0x0290);//8
    2f18:	0140a404 	movi	r5,656
    2f1c:	0009883a 	mov	r4,zero
    2f20:	00008680 	call	868 <IO_write>
	IO_write(HPI_DATA,0x0041);//a //data1
    2f24:	01401044 	movi	r5,65
    2f28:	0009883a 	mov	r4,zero
    2f2c:	00008680 	call	868 <IO_write>
	IO_write(HPI_DATA,0x0013);//c
    2f30:	014004c4 	movi	r5,19
    2f34:	0009883a 	mov	r4,zero
    2f38:	00008680 	call	868 <IO_write>
	IO_write(HPI_DATA,0x0550);//e
    2f3c:	01415404 	movi	r5,1360
    2f40:	0009883a 	mov	r4,zero
    2f44:	00008680 	call	868 <IO_write>

	//status phase
	IO_write(HPI_DATA,0x0000); //550
    2f48:	000b883a 	mov	r5,zero
    2f4c:	0009883a 	mov	r4,zero
    2f50:	00008680 	call	868 <IO_write>
	IO_write(HPI_DATA,0x0000);//2
    2f54:	000b883a 	mov	r5,zero
    2f58:	0009883a 	mov	r4,zero
    2f5c:	00008680 	call	868 <IO_write>
	IO_write(HPI_DATA,0x0210);//4
    2f60:	01408404 	movi	r5,528
    2f64:	0009883a 	mov	r4,zero
    2f68:	00008680 	call	868 <IO_write>
	IO_write(HPI_DATA,0x0041);//6
    2f6c:	01401044 	movi	r5,65
    2f70:	0009883a 	mov	r4,zero
    2f74:	00008680 	call	868 <IO_write>
	IO_write(HPI_DATA,0x0013);//8
    2f78:	014004c4 	movi	r5,19
    2f7c:	0009883a 	mov	r4,zero
    2f80:	00008680 	call	868 <IO_write>
	IO_write(HPI_DATA,0x0000);//a
    2f84:	000b883a 	mov	r5,zero
    2f88:	0009883a 	mov	r4,zero
    2f8c:	00008680 	call	868 <IO_write>

	UsbWrite(HUSB_SIE1_pCurrentTDPtr,0x0500); //HUSB_SIE1_pCurrentTDPtr
    2f90:	01414004 	movi	r5,1280
    2f94:	01006c04 	movi	r4,432
    2f98:	000264c0 	call	264c <UsbWrite>
}
    2f9c:	0001883a 	nop
    2fa0:	e037883a 	mov	sp,fp
    2fa4:	dfc00117 	ldw	ra,4(sp)
    2fa8:	df000017 	ldw	fp,0(sp)
    2fac:	dec00204 	addi	sp,sp,8
    2fb0:	f800283a 	ret

00002fb4 <UsbSetConfig>:

void UsbSetConfig()
{
    2fb4:	defffe04 	addi	sp,sp,-8
    2fb8:	dfc00115 	stw	ra,4(sp)
    2fbc:	df000015 	stw	fp,0(sp)
    2fc0:	d839883a 	mov	fp,sp
	//the starting address
	IO_write(HPI_ADDR,0x0500); //the start address
    2fc4:	01414004 	movi	r5,1280
    2fc8:	01000084 	movi	r4,2
    2fcc:	00008680 	call	868 <IO_write>
	IO_write(HPI_DATA,0x050C);
    2fd0:	01414304 	movi	r5,1292
    2fd4:	0009883a 	mov	r4,zero
    2fd8:	00008680 	call	868 <IO_write>
	IO_write(HPI_DATA,0x0008); //4 port number
    2fdc:	01400204 	movi	r5,8
    2fe0:	0009883a 	mov	r4,zero
    2fe4:	00008680 	call	868 <IO_write>
	IO_write(HPI_DATA,0x02D0); //port address
    2fe8:	0140b404 	movi	r5,720
    2fec:	0009883a 	mov	r4,zero
    2ff0:	00008680 	call	868 <IO_write>
	IO_write(HPI_DATA,0x0001);
    2ff4:	01400044 	movi	r5,1
    2ff8:	0009883a 	mov	r4,zero
    2ffc:	00008680 	call	868 <IO_write>
	IO_write(HPI_DATA,0x0013);
    3000:	014004c4 	movi	r5,19
    3004:	0009883a 	mov	r4,zero
    3008:	00008680 	call	868 <IO_write>
	IO_write(HPI_DATA,0x0514);
    300c:	01414504 	movi	r5,1300
    3010:	0009883a 	mov	r4,zero
    3014:	00008680 	call	868 <IO_write>

	//td content 4 bytes
	IO_write(HPI_DATA,0x0900);
    3018:	01424004 	movi	r5,2304
    301c:	0009883a 	mov	r4,zero
    3020:	00008680 	call	868 <IO_write>
	IO_write(HPI_DATA,0x0001);//device address
    3024:	01400044 	movi	r5,1
    3028:	0009883a 	mov	r4,zero
    302c:	00008680 	call	868 <IO_write>
	IO_write(HPI_DATA,0x0000);
    3030:	000b883a 	mov	r5,zero
    3034:	0009883a 	mov	r4,zero
    3038:	00008680 	call	868 <IO_write>
	IO_write(HPI_DATA,0x0000);
    303c:	000b883a 	mov	r5,zero
    3040:	0009883a 	mov	r4,zero
    3044:	00008680 	call	868 <IO_write>
	//in packet
	IO_write(HPI_DATA,0x0000); //don't care
    3048:	000b883a 	mov	r5,zero
    304c:	0009883a 	mov	r4,zero
    3050:	00008680 	call	868 <IO_write>
	IO_write(HPI_DATA,0x0000);//port number
    3054:	000b883a 	mov	r5,zero
    3058:	0009883a 	mov	r4,zero
    305c:	00008680 	call	868 <IO_write>
	IO_write(HPI_DATA,0x0290);//device address
    3060:	0140a404 	movi	r5,656
    3064:	0009883a 	mov	r4,zero
    3068:	00008680 	call	868 <IO_write>
	IO_write(HPI_DATA,0x0041); //data 1
    306c:	01401044 	movi	r5,65
    3070:	0009883a 	mov	r4,zero
    3074:	00008680 	call	868 <IO_write>
	IO_write(HPI_DATA,0x0013);
    3078:	014004c4 	movi	r5,19
    307c:	0009883a 	mov	r4,zero
    3080:	00008680 	call	868 <IO_write>
	IO_write(HPI_DATA,0x0000);
    3084:	000b883a 	mov	r5,zero
    3088:	0009883a 	mov	r4,zero
    308c:	00008680 	call	868 <IO_write>

	UsbWrite(HUSB_SIE1_pCurrentTDPtr,0x0500); //HUSB_SIE1_pCurrentTDPtr
    3090:	01414004 	movi	r5,1280
    3094:	01006c04 	movi	r4,432
    3098:	000264c0 	call	264c <UsbWrite>

}
    309c:	0001883a 	nop
    30a0:	e037883a 	mov	sp,fp
    30a4:	dfc00117 	ldw	ra,4(sp)
    30a8:	df000017 	ldw	fp,0(sp)
    30ac:	dec00204 	addi	sp,sp,8
    30b0:	f800283a 	ret

000030b4 <UsbClassRequest>:

void UsbClassRequest()
{
    30b4:	defffe04 	addi	sp,sp,-8
    30b8:	dfc00115 	stw	ra,4(sp)
    30bc:	df000015 	stw	fp,0(sp)
    30c0:	d839883a 	mov	fp,sp
	//the starting address
	IO_write(HPI_ADDR,0x0500); //the start address
    30c4:	01414004 	movi	r5,1280
    30c8:	01000084 	movi	r4,2
    30cc:	00008680 	call	868 <IO_write>
	IO_write(HPI_DATA,0x050C);
    30d0:	01414304 	movi	r5,1292
    30d4:	0009883a 	mov	r4,zero
    30d8:	00008680 	call	868 <IO_write>
	IO_write(HPI_DATA,0x0008); //4 port number
    30dc:	01400204 	movi	r5,8
    30e0:	0009883a 	mov	r4,zero
    30e4:	00008680 	call	868 <IO_write>
	IO_write(HPI_DATA,0x02D0); //port address
    30e8:	0140b404 	movi	r5,720
    30ec:	0009883a 	mov	r4,zero
    30f0:	00008680 	call	868 <IO_write>
	IO_write(HPI_DATA,0x0001);
    30f4:	01400044 	movi	r5,1
    30f8:	0009883a 	mov	r4,zero
    30fc:	00008680 	call	868 <IO_write>
	IO_write(HPI_DATA,0x0013);
    3100:	014004c4 	movi	r5,19
    3104:	0009883a 	mov	r4,zero
    3108:	00008680 	call	868 <IO_write>
	IO_write(HPI_DATA,0x0514);
    310c:	01414504 	movi	r5,1300
    3110:	0009883a 	mov	r4,zero
    3114:	00008680 	call	868 <IO_write>

	//td content 4 bytes
	IO_write(HPI_DATA,0x0A21);
    3118:	01428844 	movi	r5,2593
    311c:	0009883a 	mov	r4,zero
    3120:	00008680 	call	868 <IO_write>
	IO_write(HPI_DATA,0x0000);//device address
    3124:	000b883a 	mov	r5,zero
    3128:	0009883a 	mov	r4,zero
    312c:	00008680 	call	868 <IO_write>
	IO_write(HPI_DATA,0x0000);
    3130:	000b883a 	mov	r5,zero
    3134:	0009883a 	mov	r4,zero
    3138:	00008680 	call	868 <IO_write>
	IO_write(HPI_DATA,0x0000);
    313c:	000b883a 	mov	r5,zero
    3140:	0009883a 	mov	r4,zero
    3144:	00008680 	call	868 <IO_write>
	//in packet
	IO_write(HPI_DATA,0x0000); //don't care
    3148:	000b883a 	mov	r5,zero
    314c:	0009883a 	mov	r4,zero
    3150:	00008680 	call	868 <IO_write>
	IO_write(HPI_DATA,0x0000);//port number /data length
    3154:	000b883a 	mov	r5,zero
    3158:	0009883a 	mov	r4,zero
    315c:	00008680 	call	868 <IO_write>
	IO_write(HPI_DATA,0x0290);//device address
    3160:	0140a404 	movi	r5,656
    3164:	0009883a 	mov	r4,zero
    3168:	00008680 	call	868 <IO_write>
	IO_write(HPI_DATA,0x0041); //data 1
    316c:	01401044 	movi	r5,65
    3170:	0009883a 	mov	r4,zero
    3174:	00008680 	call	868 <IO_write>
	IO_write(HPI_DATA,0x0013);
    3178:	014004c4 	movi	r5,19
    317c:	0009883a 	mov	r4,zero
    3180:	00008680 	call	868 <IO_write>
	IO_write(HPI_DATA,0x0000);
    3184:	000b883a 	mov	r5,zero
    3188:	0009883a 	mov	r4,zero
    318c:	00008680 	call	868 <IO_write>

	UsbWrite(HUSB_SIE1_pCurrentTDPtr,0x0500); //HUSB_SIE1_pCurrentTDPtr
    3190:	01414004 	movi	r5,1280
    3194:	01006c04 	movi	r4,432
    3198:	000264c0 	call	264c <UsbWrite>
}
    319c:	0001883a 	nop
    31a0:	e037883a 	mov	sp,fp
    31a4:	dfc00117 	ldw	ra,4(sp)
    31a8:	df000017 	ldw	fp,0(sp)
    31ac:	dec00204 	addi	sp,sp,8
    31b0:	f800283a 	ret

000031b4 <UsbGetHidDesc>:


void UsbGetHidDesc()
{
    31b4:	defffe04 	addi	sp,sp,-8
    31b8:	dfc00115 	stw	ra,4(sp)
    31bc:	df000015 	stw	fp,0(sp)
    31c0:	d839883a 	mov	fp,sp
	//the starting address
	IO_write(HPI_ADDR,0x0500); //the start address
    31c4:	01414004 	movi	r5,1280
    31c8:	01000084 	movi	r4,2
    31cc:	00008680 	call	868 <IO_write>
	IO_write(HPI_DATA,0x050C);
    31d0:	01414304 	movi	r5,1292
    31d4:	0009883a 	mov	r4,zero
    31d8:	00008680 	call	868 <IO_write>
	IO_write(HPI_DATA,0x0008); //4 port number
    31dc:	01400204 	movi	r5,8
    31e0:	0009883a 	mov	r4,zero
    31e4:	00008680 	call	868 <IO_write>
	IO_write(HPI_DATA,0x02D0); //port address
    31e8:	0140b404 	movi	r5,720
    31ec:	0009883a 	mov	r4,zero
    31f0:	00008680 	call	868 <IO_write>
	IO_write(HPI_DATA,0x0001);
    31f4:	01400044 	movi	r5,1
    31f8:	0009883a 	mov	r4,zero
    31fc:	00008680 	call	868 <IO_write>
	IO_write(HPI_DATA,0x0013);
    3200:	014004c4 	movi	r5,19
    3204:	0009883a 	mov	r4,zero
    3208:	00008680 	call	868 <IO_write>
	IO_write(HPI_DATA,0x0514);
    320c:	01414504 	movi	r5,1300
    3210:	0009883a 	mov	r4,zero
    3214:	00008680 	call	868 <IO_write>

	//td content 4 bytes
	IO_write(HPI_DATA,0x0681);//c
    3218:	0141a044 	movi	r5,1665
    321c:	0009883a 	mov	r4,zero
    3220:	00008680 	call	868 <IO_write>
	IO_write(HPI_DATA,0x2100);//e //HID 0x21
    3224:	01484004 	movi	r5,8448
    3228:	0009883a 	mov	r4,zero
    322c:	00008680 	call	868 <IO_write>
	IO_write(HPI_DATA,0x0000);//0
    3230:	000b883a 	mov	r5,zero
    3234:	0009883a 	mov	r4,zero
    3238:	00008680 	call	868 <IO_write>
	IO_write(HPI_DATA,0x007B);//2
    323c:	01401ec4 	movi	r5,123
    3240:	0009883a 	mov	r4,zero
    3244:	00008680 	call	868 <IO_write>

	//data phase IN-1
	IO_write(HPI_DATA,0x0544); //514
    3248:	01415104 	movi	r5,1348
    324c:	0009883a 	mov	r4,zero
    3250:	00008680 	call	868 <IO_write>
	IO_write(HPI_DATA,0x0008);//6
    3254:	01400204 	movi	r5,8
    3258:	0009883a 	mov	r4,zero
    325c:	00008680 	call	868 <IO_write>
	IO_write(HPI_DATA,0x0290);//8
    3260:	0140a404 	movi	r5,656
    3264:	0009883a 	mov	r4,zero
    3268:	00008680 	call	868 <IO_write>
	IO_write(HPI_DATA,0x0041);//a
    326c:	01401044 	movi	r5,65
    3270:	0009883a 	mov	r4,zero
    3274:	00008680 	call	868 <IO_write>
	IO_write(HPI_DATA,0x0013);//c
    3278:	014004c4 	movi	r5,19
    327c:	0009883a 	mov	r4,zero
    3280:	00008680 	call	868 <IO_write>
	IO_write(HPI_DATA,0x0520);//e
    3284:	01414804 	movi	r5,1312
    3288:	0009883a 	mov	r4,zero
    328c:	00008680 	call	868 <IO_write>

	//status phase
	IO_write(HPI_DATA,0x0000); //52c
    3290:	000b883a 	mov	r5,zero
    3294:	0009883a 	mov	r4,zero
    3298:	00008680 	call	868 <IO_write>
	IO_write(HPI_DATA,0x0000);//e
    329c:	000b883a 	mov	r5,zero
    32a0:	0009883a 	mov	r4,zero
    32a4:	00008680 	call	868 <IO_write>
	IO_write(HPI_DATA,0x0210);//530
    32a8:	01408404 	movi	r5,528
    32ac:	0009883a 	mov	r4,zero
    32b0:	00008680 	call	868 <IO_write>
	IO_write(HPI_DATA,0x0041);//2
    32b4:	01401044 	movi	r5,65
    32b8:	0009883a 	mov	r4,zero
    32bc:	00008680 	call	868 <IO_write>
	IO_write(HPI_DATA,0x0013);//4
    32c0:	014004c4 	movi	r5,19
    32c4:	0009883a 	mov	r4,zero
    32c8:	00008680 	call	868 <IO_write>
	IO_write(HPI_DATA,0x0000);//6
    32cc:	000b883a 	mov	r5,zero
    32d0:	0009883a 	mov	r4,zero
    32d4:	00008680 	call	868 <IO_write>

	UsbWrite(HUSB_SIE1_pCurrentTDPtr,0x0500); //HUSB_SIE1_pCurrentTDPtr
    32d8:	01414004 	movi	r5,1280
    32dc:	01006c04 	movi	r4,432
    32e0:	000264c0 	call	264c <UsbWrite>

}
    32e4:	0001883a 	nop
    32e8:	e037883a 	mov	sp,fp
    32ec:	dfc00117 	ldw	ra,4(sp)
    32f0:	df000017 	ldw	fp,0(sp)
    32f4:	dec00204 	addi	sp,sp,8
    32f8:	f800283a 	ret

000032fc <UsbGetReportDesc>:


void UsbGetReportDesc()
{
    32fc:	defffe04 	addi	sp,sp,-8
    3300:	dfc00115 	stw	ra,4(sp)
    3304:	df000015 	stw	fp,0(sp)
    3308:	d839883a 	mov	fp,sp
	//the starting address
	IO_write(HPI_ADDR,0x0500); //the start address
    330c:	01414004 	movi	r5,1280
    3310:	01000084 	movi	r4,2
    3314:	00008680 	call	868 <IO_write>
	IO_write(HPI_DATA,0x050C);
    3318:	01414304 	movi	r5,1292
    331c:	0009883a 	mov	r4,zero
    3320:	00008680 	call	868 <IO_write>
	IO_write(HPI_DATA,0x0008); //4 port number
    3324:	01400204 	movi	r5,8
    3328:	0009883a 	mov	r4,zero
    332c:	00008680 	call	868 <IO_write>
	IO_write(HPI_DATA,0x02D0); //device address
    3330:	0140b404 	movi	r5,720
    3334:	0009883a 	mov	r4,zero
    3338:	00008680 	call	868 <IO_write>
	IO_write(HPI_DATA,0x0001);
    333c:	01400044 	movi	r5,1
    3340:	0009883a 	mov	r4,zero
    3344:	00008680 	call	868 <IO_write>
	IO_write(HPI_DATA,0x0013);
    3348:	014004c4 	movi	r5,19
    334c:	0009883a 	mov	r4,zero
    3350:	00008680 	call	868 <IO_write>
	IO_write(HPI_DATA,0x0514);
    3354:	01414504 	movi	r5,1300
    3358:	0009883a 	mov	r4,zero
    335c:	00008680 	call	868 <IO_write>

	//td content 4 bytes
	IO_write(HPI_DATA,0x0681);//c
    3360:	0141a044 	movi	r5,1665
    3364:	0009883a 	mov	r4,zero
    3368:	00008680 	call	868 <IO_write>
	IO_write(HPI_DATA,0x2200);//e //report 0x22
    336c:	01488004 	movi	r5,8704
    3370:	0009883a 	mov	r4,zero
    3374:	00008680 	call	868 <IO_write>
	IO_write(HPI_DATA,0x0000);//0
    3378:	000b883a 	mov	r5,zero
    337c:	0009883a 	mov	r4,zero
    3380:	00008680 	call	868 <IO_write>
	IO_write(HPI_DATA,0x007B);//2
    3384:	01401ec4 	movi	r5,123
    3388:	0009883a 	mov	r4,zero
    338c:	00008680 	call	868 <IO_write>

	//data phase IN-1
	IO_write(HPI_DATA,0x0580); //514
    3390:	01416004 	movi	r5,1408
    3394:	0009883a 	mov	r4,zero
    3398:	00008680 	call	868 <IO_write>
	IO_write(HPI_DATA,0x0008);//6
    339c:	01400204 	movi	r5,8
    33a0:	0009883a 	mov	r4,zero
    33a4:	00008680 	call	868 <IO_write>
	IO_write(HPI_DATA,0x0290);//8
    33a8:	0140a404 	movi	r5,656
    33ac:	0009883a 	mov	r4,zero
    33b0:	00008680 	call	868 <IO_write>
	IO_write(HPI_DATA,0x0041);//a
    33b4:	01401044 	movi	r5,65
    33b8:	0009883a 	mov	r4,zero
    33bc:	00008680 	call	868 <IO_write>
	IO_write(HPI_DATA,0x0013);//c
    33c0:	014004c4 	movi	r5,19
    33c4:	0009883a 	mov	r4,zero
    33c8:	00008680 	call	868 <IO_write>
	IO_write(HPI_DATA,0x0520);//e
    33cc:	01414804 	movi	r5,1312
    33d0:	0009883a 	mov	r4,zero
    33d4:	00008680 	call	868 <IO_write>

	//data phase IN-2
	IO_write(HPI_DATA,0x0588); //520
    33d8:	01416204 	movi	r5,1416
    33dc:	0009883a 	mov	r4,zero
    33e0:	00008680 	call	868 <IO_write>
	IO_write(HPI_DATA,0x0008);//2
    33e4:	01400204 	movi	r5,8
    33e8:	0009883a 	mov	r4,zero
    33ec:	00008680 	call	868 <IO_write>
	IO_write(HPI_DATA,0x0290);//4
    33f0:	0140a404 	movi	r5,656
    33f4:	0009883a 	mov	r4,zero
    33f8:	00008680 	call	868 <IO_write>
	IO_write(HPI_DATA,0x0001);//6 //data0
    33fc:	01400044 	movi	r5,1
    3400:	0009883a 	mov	r4,zero
    3404:	00008680 	call	868 <IO_write>
	IO_write(HPI_DATA,0x0013);//8
    3408:	014004c4 	movi	r5,19
    340c:	0009883a 	mov	r4,zero
    3410:	00008680 	call	868 <IO_write>
	IO_write(HPI_DATA,0x052c);//a
    3414:	01414b04 	movi	r5,1324
    3418:	0009883a 	mov	r4,zero
    341c:	00008680 	call	868 <IO_write>

	//data phase IN-3
	IO_write(HPI_DATA,0x0590); //52c
    3420:	01416404 	movi	r5,1424
    3424:	0009883a 	mov	r4,zero
    3428:	00008680 	call	868 <IO_write>
	IO_write(HPI_DATA,0x0008);//e
    342c:	01400204 	movi	r5,8
    3430:	0009883a 	mov	r4,zero
    3434:	00008680 	call	868 <IO_write>
	IO_write(HPI_DATA,0x0290);//530
    3438:	0140a404 	movi	r5,656
    343c:	0009883a 	mov	r4,zero
    3440:	00008680 	call	868 <IO_write>
	IO_write(HPI_DATA,0x0041);//2
    3444:	01401044 	movi	r5,65
    3448:	0009883a 	mov	r4,zero
    344c:	00008680 	call	868 <IO_write>
	IO_write(HPI_DATA,0x0013);//4
    3450:	014004c4 	movi	r5,19
    3454:	0009883a 	mov	r4,zero
    3458:	00008680 	call	868 <IO_write>
	IO_write(HPI_DATA,0x0538);//6
    345c:	01414e04 	movi	r5,1336
    3460:	0009883a 	mov	r4,zero
    3464:	00008680 	call	868 <IO_write>

	//data phase IN-4
	IO_write(HPI_DATA,0x0598); //538
    3468:	01416604 	movi	r5,1432
    346c:	0009883a 	mov	r4,zero
    3470:	00008680 	call	868 <IO_write>
	IO_write(HPI_DATA,0x0008);//a
    3474:	01400204 	movi	r5,8
    3478:	0009883a 	mov	r4,zero
    347c:	00008680 	call	868 <IO_write>
	IO_write(HPI_DATA,0x0290);//c
    3480:	0140a404 	movi	r5,656
    3484:	0009883a 	mov	r4,zero
    3488:	00008680 	call	868 <IO_write>
	IO_write(HPI_DATA,0x0001);//e //data0
    348c:	01400044 	movi	r5,1
    3490:	0009883a 	mov	r4,zero
    3494:	00008680 	call	868 <IO_write>
	IO_write(HPI_DATA,0x0013);//540
    3498:	014004c4 	movi	r5,19
    349c:	0009883a 	mov	r4,zero
    34a0:	00008680 	call	868 <IO_write>
	IO_write(HPI_DATA,0x0544);//2
    34a4:	01415104 	movi	r5,1348
    34a8:	0009883a 	mov	r4,zero
    34ac:	00008680 	call	868 <IO_write>

	//data phase IN-5
	IO_write(HPI_DATA,0x05a0); //544
    34b0:	01416804 	movi	r5,1440
    34b4:	0009883a 	mov	r4,zero
    34b8:	00008680 	call	868 <IO_write>
	IO_write(HPI_DATA,0x0008);//6
    34bc:	01400204 	movi	r5,8
    34c0:	0009883a 	mov	r4,zero
    34c4:	00008680 	call	868 <IO_write>
	IO_write(HPI_DATA,0x0290);//8
    34c8:	0140a404 	movi	r5,656
    34cc:	0009883a 	mov	r4,zero
    34d0:	00008680 	call	868 <IO_write>
	IO_write(HPI_DATA,0x0041);//a //data1
    34d4:	01401044 	movi	r5,65
    34d8:	0009883a 	mov	r4,zero
    34dc:	00008680 	call	868 <IO_write>
	IO_write(HPI_DATA,0x0013);//c
    34e0:	014004c4 	movi	r5,19
    34e4:	0009883a 	mov	r4,zero
    34e8:	00008680 	call	868 <IO_write>
	IO_write(HPI_DATA,0x0550);//e
    34ec:	01415404 	movi	r5,1360
    34f0:	0009883a 	mov	r4,zero
    34f4:	00008680 	call	868 <IO_write>

	//data phase IN-6
	IO_write(HPI_DATA,0x05a8); //550
    34f8:	01416a04 	movi	r5,1448
    34fc:	0009883a 	mov	r4,zero
    3500:	00008680 	call	868 <IO_write>
	IO_write(HPI_DATA,0x0008);//2
    3504:	01400204 	movi	r5,8
    3508:	0009883a 	mov	r4,zero
    350c:	00008680 	call	868 <IO_write>
	IO_write(HPI_DATA,0x0290);//4
    3510:	0140a404 	movi	r5,656
    3514:	0009883a 	mov	r4,zero
    3518:	00008680 	call	868 <IO_write>
	IO_write(HPI_DATA,0x0001);//6 //data0
    351c:	01400044 	movi	r5,1
    3520:	0009883a 	mov	r4,zero
    3524:	00008680 	call	868 <IO_write>
	IO_write(HPI_DATA,0x0013);//8
    3528:	014004c4 	movi	r5,19
    352c:	0009883a 	mov	r4,zero
    3530:	00008680 	call	868 <IO_write>
	IO_write(HPI_DATA,0x055c);//a
    3534:	01415704 	movi	r5,1372
    3538:	0009883a 	mov	r4,zero
    353c:	00008680 	call	868 <IO_write>

	//data phase IN-7
	IO_write(HPI_DATA,0x05b0); //c
    3540:	01416c04 	movi	r5,1456
    3544:	0009883a 	mov	r4,zero
    3548:	00008680 	call	868 <IO_write>
	IO_write(HPI_DATA,0x0008);//e
    354c:	01400204 	movi	r5,8
    3550:	0009883a 	mov	r4,zero
    3554:	00008680 	call	868 <IO_write>
	IO_write(HPI_DATA,0x0290);//560
    3558:	0140a404 	movi	r5,656
    355c:	0009883a 	mov	r4,zero
    3560:	00008680 	call	868 <IO_write>
	IO_write(HPI_DATA,0x0041);//2 //data1
    3564:	01401044 	movi	r5,65
    3568:	0009883a 	mov	r4,zero
    356c:	00008680 	call	868 <IO_write>
	IO_write(HPI_DATA,0x0013);//4
    3570:	014004c4 	movi	r5,19
    3574:	0009883a 	mov	r4,zero
    3578:	00008680 	call	868 <IO_write>
	IO_write(HPI_DATA,0x0568);//6
    357c:	01415a04 	movi	r5,1384
    3580:	0009883a 	mov	r4,zero
    3584:	00008680 	call	868 <IO_write>

	//data phase IN-8
	IO_write(HPI_DATA,0x05b8); //8
    3588:	01416e04 	movi	r5,1464
    358c:	0009883a 	mov	r4,zero
    3590:	00008680 	call	868 <IO_write>
	IO_write(HPI_DATA,0x0003);//a
    3594:	014000c4 	movi	r5,3
    3598:	0009883a 	mov	r4,zero
    359c:	00008680 	call	868 <IO_write>
	IO_write(HPI_DATA,0x0290);//c
    35a0:	0140a404 	movi	r5,656
    35a4:	0009883a 	mov	r4,zero
    35a8:	00008680 	call	868 <IO_write>
	IO_write(HPI_DATA,0x0001);//e //data0
    35ac:	01400044 	movi	r5,1
    35b0:	0009883a 	mov	r4,zero
    35b4:	00008680 	call	868 <IO_write>
	IO_write(HPI_DATA,0x0013);//570
    35b8:	014004c4 	movi	r5,19
    35bc:	0009883a 	mov	r4,zero
    35c0:	00008680 	call	868 <IO_write>
	IO_write(HPI_DATA,0x0574);//2
    35c4:	01415d04 	movi	r5,1396
    35c8:	0009883a 	mov	r4,zero
    35cc:	00008680 	call	868 <IO_write>

	//status phase
	IO_write(HPI_DATA,0x0000); //574
    35d0:	000b883a 	mov	r5,zero
    35d4:	0009883a 	mov	r4,zero
    35d8:	00008680 	call	868 <IO_write>
	IO_write(HPI_DATA,0x0000);//6
    35dc:	000b883a 	mov	r5,zero
    35e0:	0009883a 	mov	r4,zero
    35e4:	00008680 	call	868 <IO_write>
	IO_write(HPI_DATA,0x0210);//8
    35e8:	01408404 	movi	r5,528
    35ec:	0009883a 	mov	r4,zero
    35f0:	00008680 	call	868 <IO_write>
	IO_write(HPI_DATA,0x0041);//a
    35f4:	01401044 	movi	r5,65
    35f8:	0009883a 	mov	r4,zero
    35fc:	00008680 	call	868 <IO_write>
	IO_write(HPI_DATA,0x0013);//c
    3600:	014004c4 	movi	r5,19
    3604:	0009883a 	mov	r4,zero
    3608:	00008680 	call	868 <IO_write>
	IO_write(HPI_DATA,0x0000);//e
    360c:	000b883a 	mov	r5,zero
    3610:	0009883a 	mov	r4,zero
    3614:	00008680 	call	868 <IO_write>

	UsbWrite(HUSB_SIE1_pCurrentTDPtr,0x0500); //HUSB_SIE1_pCurrentTDPtr
    3618:	01414004 	movi	r5,1280
    361c:	01006c04 	movi	r4,432
    3620:	000264c0 	call	264c <UsbWrite>

}
    3624:	0001883a 	nop
    3628:	e037883a 	mov	sp,fp
    362c:	dfc00117 	ldw	ra,4(sp)
    3630:	df000017 	ldw	fp,0(sp)
    3634:	dec00204 	addi	sp,sp,8
    3638:	f800283a 	ret

0000363c <UsbWaitTDListDone>:


alt_u16 UsbWaitTDListDone()
{
    363c:	defffd04 	addi	sp,sp,-12
    3640:	dfc00215 	stw	ra,8(sp)
    3644:	df000115 	stw	fp,4(sp)
    3648:	df000104 	addi	fp,sp,4
	alt_u16 usb_ctl_val;

	usb_ctl_val = UsbRead(HPI_SIE1_MSG_ADR); // STEP 3 j
    364c:	01005104 	movi	r4,324
    3650:	00026a40 	call	26a4 <UsbRead>
    3654:	e0bfff0d 	sth	r2,-4(fp)
	UsbWrite(HPI_SIE1_MSG_ADR, 0);
    3658:	000b883a 	mov	r5,zero
    365c:	01005104 	movi	r4,324
    3660:	000264c0 	call	264c <UsbWrite>
	while (usb_ctl_val != HUSB_TDListDone)  // k, read sie1 msg register
    3664:	00000d06 	br	369c <UsbWaitTDListDone+0x60>
	{
		if(usb_ctl_val == 0x0000)
    3668:	e0bfff0b 	ldhu	r2,-4(fp)
    366c:	10000526 	beq	r2,zero,3684 <UsbWaitTDListDone+0x48>
		{
		}
		else
		{
			printf("[SIE1 MSG]:SIE1 msg reg is %x\n",usb_ctl_val);
    3670:	e0bfff0b 	ldhu	r2,-4(fp)
    3674:	100b883a 	mov	r5,r2
    3678:	01000074 	movhi	r4,1
    367c:	211f1304 	addi	r4,r4,31820
    3680:	000909c0 	call	909c <printf>
		}
		usb_ctl_val = UsbRead(HPI_SIE1_MSG_ADR);
    3684:	01005104 	movi	r4,324
    3688:	00026a40 	call	26a4 <UsbRead>
    368c:	e0bfff0d 	sth	r2,-4(fp)
		UsbWrite(HPI_SIE1_MSG_ADR, 0);
    3690:	000b883a 	mov	r5,zero
    3694:	01005104 	movi	r4,324
    3698:	000264c0 	call	264c <UsbWrite>
{
	alt_u16 usb_ctl_val;

	usb_ctl_val = UsbRead(HPI_SIE1_MSG_ADR); // STEP 3 j
	UsbWrite(HPI_SIE1_MSG_ADR, 0);
	while (usb_ctl_val != HUSB_TDListDone)  // k, read sie1 msg register
    369c:	e0bfff0b 	ldhu	r2,-4(fp)
    36a0:	10840018 	cmpnei	r2,r2,4096
    36a4:	103ff01e 	bne	r2,zero,3668 <__alt_exception_stack_pointer+0xf8003668>
		}
		usb_ctl_val = UsbRead(HPI_SIE1_MSG_ADR);
		UsbWrite(HPI_SIE1_MSG_ADR, 0);
	}

	return usb_ctl_val;
    36a8:	e0bfff0b 	ldhu	r2,-4(fp)
}
    36ac:	e037883a 	mov	sp,fp
    36b0:	dfc00117 	ldw	ra,4(sp)
    36b4:	df000017 	ldw	fp,0(sp)
    36b8:	dec00204 	addi	sp,sp,8
    36bc:	f800283a 	ret

000036c0 <UsbGetRetryCnt>:


alt_u16 UsbGetRetryCnt()
{
    36c0:	defffd04 	addi	sp,sp,-12
    36c4:	dfc00215 	stw	ra,8(sp)
    36c8:	df000115 	stw	fp,4(sp)
    36cc:	df000104 	addi	fp,sp,4
	alt_u16 usb_ctl_val;

	IO_read(HPI_STATUS);
    36d0:	010000c4 	movi	r4,3
    36d4:	00008f00 	call	8f0 <IO_read>
	if(UsbRead(HPI_SIE1_MSG_ADR) == HUSB_TDListDone)
    36d8:	01005104 	movi	r4,324
    36dc:	00026a40 	call	26a4 <UsbRead>
    36e0:	10bfffcc 	andi	r2,r2,65535
    36e4:	10840018 	cmpnei	r2,r2,4096
    36e8:	1000091e 	bne	r2,zero,3710 <UsbGetRetryCnt+0x50>
	{
		UsbWrite(HPI_SIE1_MSG_ADR, 0);
    36ec:	000b883a 	mov	r5,zero
    36f0:	01005104 	movi	r4,324
    36f4:	000264c0 	call	264c <UsbWrite>

		while (!(IO_read(HPI_STATUS) & HPI_STATUS_SIE1msg_FLAG) )  //read sie1 msg register
    36f8:	0001883a 	nop
    36fc:	010000c4 	movi	r4,3
    3700:	00008f00 	call	8f0 <IO_read>
    3704:	10bfffcc 	andi	r2,r2,65535
    3708:	1080040c 	andi	r2,r2,16
    370c:	103ffb26 	beq	r2,zero,36fc <__alt_exception_stack_pointer+0xf80036fc>
		{
		}
	}
	usleep(1000);
    3710:	0100fa04 	movi	r4,1000
    3714:	00144a00 	call	144a0 <usleep>
	IO_write(HPI_ADDR,0x0508);
    3718:	01414204 	movi	r5,1288
    371c:	01000084 	movi	r4,2
    3720:	00008680 	call	868 <IO_write>
	usb_ctl_val = IO_read(HPI_DATA);
    3724:	0009883a 	mov	r4,zero
    3728:	00008f00 	call	8f0 <IO_read>
    372c:	e0bfff0d 	sth	r2,-4(fp)

	return usb_ctl_val;
    3730:	e0bfff0b 	ldhu	r2,-4(fp)
}
    3734:	e037883a 	mov	sp,fp
    3738:	dfc00117 	ldw	ra,4(sp)
    373c:	df000017 	ldw	fp,0(sp)
    3740:	dec00204 	addi	sp,sp,8
    3744:	f800283a 	ret

00003748 <UsbPrintMem>:


void UsbPrintMem()
{
    3748:	defffc04 	addi	sp,sp,-16
    374c:	dfc00315 	stw	ra,12(sp)
    3750:	df000215 	stw	fp,8(sp)
    3754:	df000204 	addi	fp,sp,8
	int i, code;
	IO_write(HPI_ADDR,0x0500); //the start address
    3758:	01414004 	movi	r5,1280
    375c:	01000084 	movi	r4,2
    3760:	00008680 	call	868 <IO_write>
	for (i = 0; i <= 200; i += 2)
    3764:	e03ffe15 	stw	zero,-8(fp)
    3768:	00000e06 	br	37a4 <UsbPrintMem+0x5c>
	{
		code = IO_read(HPI_DATA);
    376c:	0009883a 	mov	r4,zero
    3770:	00008f00 	call	8f0 <IO_read>
    3774:	10bfffcc 	andi	r2,r2,65535
    3778:	e0bfff15 	stw	r2,-4(fp)
		printf("\naddr %x = %04x\n", 0x0500+i, code);
    377c:	e0bffe17 	ldw	r2,-8(fp)
    3780:	10814004 	addi	r2,r2,1280
    3784:	e1bfff17 	ldw	r6,-4(fp)
    3788:	100b883a 	mov	r5,r2
    378c:	01000074 	movhi	r4,1
    3790:	211f1b04 	addi	r4,r4,31852
    3794:	000909c0 	call	909c <printf>

void UsbPrintMem()
{
	int i, code;
	IO_write(HPI_ADDR,0x0500); //the start address
	for (i = 0; i <= 200; i += 2)
    3798:	e0bffe17 	ldw	r2,-8(fp)
    379c:	10800084 	addi	r2,r2,2
    37a0:	e0bffe15 	stw	r2,-8(fp)
    37a4:	e0bffe17 	ldw	r2,-8(fp)
    37a8:	10803250 	cmplti	r2,r2,201
    37ac:	103fef1e 	bne	r2,zero,376c <__alt_exception_stack_pointer+0xf800376c>
	{
		code = IO_read(HPI_DATA);
		printf("\naddr %x = %04x\n", 0x0500+i, code);
	}
}
    37b0:	0001883a 	nop
    37b4:	e037883a 	mov	sp,fp
    37b8:	dfc00117 	ldw	ra,4(sp)
    37bc:	df000017 	ldw	fp,0(sp)
    37c0:	dec00204 	addi	sp,sp,8
    37c4:	f800283a 	ret

000037c8 <cos>:
    37c8:	00a00034 	movhi	r2,32768
    37cc:	defffa04 	addi	sp,sp,-24
    37d0:	10bfffc4 	addi	r2,r2,-1
    37d4:	00cffa74 	movhi	r3,16361
    37d8:	dfc00515 	stw	ra,20(sp)
    37dc:	2884703a 	and	r2,r5,r2
    37e0:	18c87ec4 	addi	r3,r3,8699
    37e4:	1880180e 	bge	r3,r2,3848 <cos+0x80>
    37e8:	00dffc34 	movhi	r3,32752
    37ec:	18ffffc4 	addi	r3,r3,-1
    37f0:	1880060e 	bge	r3,r2,380c <cos+0x44>
    37f4:	280f883a 	mov	r7,r5
    37f8:	200d883a 	mov	r6,r4
    37fc:	00077f80 	call	77f8 <__subdf3>
    3800:	dfc00517 	ldw	ra,20(sp)
    3804:	dec00604 	addi	sp,sp,24
    3808:	f800283a 	ret
    380c:	d9800104 	addi	r6,sp,4
    3810:	00039a40 	call	39a4 <__ieee754_rem_pio2>
    3814:	108000cc 	andi	r2,r2,3
    3818:	00c00044 	movi	r3,1
    381c:	10c01726 	beq	r2,r3,387c <cos+0xb4>
    3820:	01000084 	movi	r4,2
    3824:	11000e26 	beq	r2,r4,3860 <cos+0x98>
    3828:	10001c26 	beq	r2,zero,389c <cos+0xd4>
    382c:	d9800317 	ldw	r6,12(sp)
    3830:	d9c00417 	ldw	r7,16(sp)
    3834:	d9000117 	ldw	r4,4(sp)
    3838:	d9400217 	ldw	r5,8(sp)
    383c:	d8c00015 	stw	r3,0(sp)
    3840:	000534c0 	call	534c <__kernel_sin>
    3844:	003fee06 	br	3800 <__alt_exception_stack_pointer+0xf8003800>
    3848:	000d883a 	mov	r6,zero
    384c:	000f883a 	mov	r7,zero
    3850:	00041100 	call	4110 <__kernel_cos>
    3854:	dfc00517 	ldw	ra,20(sp)
    3858:	dec00604 	addi	sp,sp,24
    385c:	f800283a 	ret
    3860:	d9800317 	ldw	r6,12(sp)
    3864:	d9c00417 	ldw	r7,16(sp)
    3868:	d9000117 	ldw	r4,4(sp)
    386c:	d9400217 	ldw	r5,8(sp)
    3870:	00041100 	call	4110 <__kernel_cos>
    3874:	18e0003c 	xorhi	r3,r3,32768
    3878:	003fe106 	br	3800 <__alt_exception_stack_pointer+0xf8003800>
    387c:	d9800317 	ldw	r6,12(sp)
    3880:	d9c00417 	ldw	r7,16(sp)
    3884:	d9000117 	ldw	r4,4(sp)
    3888:	d9400217 	ldw	r5,8(sp)
    388c:	d8800015 	stw	r2,0(sp)
    3890:	000534c0 	call	534c <__kernel_sin>
    3894:	18e0003c 	xorhi	r3,r3,32768
    3898:	003fd906 	br	3800 <__alt_exception_stack_pointer+0xf8003800>
    389c:	d9800317 	ldw	r6,12(sp)
    38a0:	d9c00417 	ldw	r7,16(sp)
    38a4:	d9000117 	ldw	r4,4(sp)
    38a8:	d9400217 	ldw	r5,8(sp)
    38ac:	00041100 	call	4110 <__kernel_cos>
    38b0:	003fd306 	br	3800 <__alt_exception_stack_pointer+0xf8003800>

000038b4 <sin>:
    38b4:	00a00034 	movhi	r2,32768
    38b8:	defffa04 	addi	sp,sp,-24
    38bc:	10bfffc4 	addi	r2,r2,-1
    38c0:	00cffa74 	movhi	r3,16361
    38c4:	dfc00515 	stw	ra,20(sp)
    38c8:	2884703a 	and	r2,r5,r2
    38cc:	18c87ec4 	addi	r3,r3,8699
    38d0:	1880180e 	bge	r3,r2,3934 <sin+0x80>
    38d4:	00dffc34 	movhi	r3,32752
    38d8:	18ffffc4 	addi	r3,r3,-1
    38dc:	1880060e 	bge	r3,r2,38f8 <sin+0x44>
    38e0:	280f883a 	mov	r7,r5
    38e4:	200d883a 	mov	r6,r4
    38e8:	00077f80 	call	77f8 <__subdf3>
    38ec:	dfc00517 	ldw	ra,20(sp)
    38f0:	dec00604 	addi	sp,sp,24
    38f4:	f800283a 	ret
    38f8:	d9800104 	addi	r6,sp,4
    38fc:	00039a40 	call	39a4 <__ieee754_rem_pio2>
    3900:	108000cc 	andi	r2,r2,3
    3904:	00c00044 	movi	r3,1
    3908:	10c01926 	beq	r2,r3,3970 <sin+0xbc>
    390c:	01000084 	movi	r4,2
    3910:	11000f26 	beq	r2,r4,3950 <sin+0x9c>
    3914:	10001c26 	beq	r2,zero,3988 <sin+0xd4>
    3918:	d9800317 	ldw	r6,12(sp)
    391c:	d9c00417 	ldw	r7,16(sp)
    3920:	d9000117 	ldw	r4,4(sp)
    3924:	d9400217 	ldw	r5,8(sp)
    3928:	00041100 	call	4110 <__kernel_cos>
    392c:	18e0003c 	xorhi	r3,r3,32768
    3930:	003fee06 	br	38ec <__alt_exception_stack_pointer+0xf80038ec>
    3934:	d8000015 	stw	zero,0(sp)
    3938:	000d883a 	mov	r6,zero
    393c:	000f883a 	mov	r7,zero
    3940:	000534c0 	call	534c <__kernel_sin>
    3944:	dfc00517 	ldw	ra,20(sp)
    3948:	dec00604 	addi	sp,sp,24
    394c:	f800283a 	ret
    3950:	d9800317 	ldw	r6,12(sp)
    3954:	d9c00417 	ldw	r7,16(sp)
    3958:	d9000117 	ldw	r4,4(sp)
    395c:	d9400217 	ldw	r5,8(sp)
    3960:	d8c00015 	stw	r3,0(sp)
    3964:	000534c0 	call	534c <__kernel_sin>
    3968:	18e0003c 	xorhi	r3,r3,32768
    396c:	003fdf06 	br	38ec <__alt_exception_stack_pointer+0xf80038ec>
    3970:	d9800317 	ldw	r6,12(sp)
    3974:	d9c00417 	ldw	r7,16(sp)
    3978:	d9000117 	ldw	r4,4(sp)
    397c:	d9400217 	ldw	r5,8(sp)
    3980:	00041100 	call	4110 <__kernel_cos>
    3984:	003fd906 	br	38ec <__alt_exception_stack_pointer+0xf80038ec>
    3988:	d9800317 	ldw	r6,12(sp)
    398c:	d9c00417 	ldw	r7,16(sp)
    3990:	d9000117 	ldw	r4,4(sp)
    3994:	d9400217 	ldw	r5,8(sp)
    3998:	d8c00015 	stw	r3,0(sp)
    399c:	000534c0 	call	534c <__kernel_sin>
    39a0:	003fd206 	br	38ec <__alt_exception_stack_pointer+0xf80038ec>

000039a4 <__ieee754_rem_pio2>:
    39a4:	02200034 	movhi	r8,32768
    39a8:	deffea04 	addi	sp,sp,-88
    39ac:	423fffc4 	addi	r8,r8,-1
    39b0:	00cffa74 	movhi	r3,16361
    39b4:	ddc01315 	stw	r23,76(sp)
    39b8:	dc400d15 	stw	r17,52(sp)
    39bc:	dfc01515 	stw	ra,84(sp)
    39c0:	df001415 	stw	fp,80(sp)
    39c4:	dd801215 	stw	r22,72(sp)
    39c8:	dd401115 	stw	r21,68(sp)
    39cc:	dd001015 	stw	r20,64(sp)
    39d0:	dcc00f15 	stw	r19,60(sp)
    39d4:	dc800e15 	stw	r18,56(sp)
    39d8:	dc000c15 	stw	r16,48(sp)
    39dc:	2a2e703a 	and	r23,r5,r8
    39e0:	18c87ec4 	addi	r3,r3,8699
    39e4:	2823883a 	mov	r17,r5
    39e8:	1dc0790e 	bge	r3,r23,3bd0 <__ieee754_rem_pio2+0x22c>
    39ec:	009000f4 	movhi	r2,16387
    39f0:	10b65ec4 	addi	r2,r2,-9861
    39f4:	3021883a 	mov	r16,r6
    39f8:	2027883a 	mov	r19,r4
    39fc:	15c02316 	blt	r2,r23,3a8c <__ieee754_rem_pio2+0xe8>
    3a00:	01cffe74 	movhi	r7,16377
    3a04:	39c87ec4 	addi	r7,r7,8699
    3a08:	01951034 	movhi	r6,21568
    3a0c:	01417a0e 	bge	zero,r5,3ff8 <__ieee754_rem_pio2+0x654>
    3a10:	00077f80 	call	77f8 <__subdf3>
    3a14:	1025883a 	mov	r18,r2
    3a18:	008ffe74 	movhi	r2,16377
    3a1c:	10887ec4 	addi	r2,r2,8699
    3a20:	1823883a 	mov	r17,r3
    3a24:	b8808426 	beq	r23,r2,3c38 <__ieee754_rem_pio2+0x294>
    3a28:	018698b4 	movhi	r6,6754
    3a2c:	01cf7474 	movhi	r7,15825
    3a30:	3198cc44 	addi	r6,r6,25393
    3a34:	39ed1844 	addi	r7,r7,-19359
    3a38:	9009883a 	mov	r4,r18
    3a3c:	180b883a 	mov	r5,r3
    3a40:	00077f80 	call	77f8 <__subdf3>
    3a44:	100d883a 	mov	r6,r2
    3a48:	180f883a 	mov	r7,r3
    3a4c:	9009883a 	mov	r4,r18
    3a50:	880b883a 	mov	r5,r17
    3a54:	80800015 	stw	r2,0(r16)
    3a58:	80c00115 	stw	r3,4(r16)
    3a5c:	00077f80 	call	77f8 <__subdf3>
    3a60:	018698b4 	movhi	r6,6754
    3a64:	01cf7474 	movhi	r7,15825
    3a68:	3198cc44 	addi	r6,r6,25393
    3a6c:	39ed1844 	addi	r7,r7,-19359
    3a70:	1009883a 	mov	r4,r2
    3a74:	180b883a 	mov	r5,r3
    3a78:	00077f80 	call	77f8 <__subdf3>
    3a7c:	80800215 	stw	r2,8(r16)
    3a80:	80c00315 	stw	r3,12(r16)
    3a84:	00800044 	movi	r2,1
    3a88:	00005606 	br	3be4 <__ieee754_rem_pio2+0x240>
    3a8c:	00904e74 	movhi	r2,16697
    3a90:	10887ec4 	addi	r2,r2,8699
    3a94:	15c0830e 	bge	r2,r23,3ca4 <__ieee754_rem_pio2+0x300>
    3a98:	009ffc34 	movhi	r2,32752
    3a9c:	10bfffc4 	addi	r2,r2,-1
    3aa0:	15c05c16 	blt	r2,r23,3c14 <__ieee754_rem_pio2+0x270>
    3aa4:	b829d53a 	srai	r20,r23,20
    3aa8:	a53efa84 	addi	r20,r20,-1046
    3aac:	a024953a 	slli	r18,r20,20
    3ab0:	bca5c83a 	sub	r18,r23,r18
    3ab4:	900b883a 	mov	r5,r18
    3ab8:	00080f40 	call	80f4 <__fixdfsi>
    3abc:	1009883a 	mov	r4,r2
    3ac0:	00081740 	call	8174 <__floatsidf>
    3ac4:	9809883a 	mov	r4,r19
    3ac8:	900b883a 	mov	r5,r18
    3acc:	100d883a 	mov	r6,r2
    3ad0:	180f883a 	mov	r7,r3
    3ad4:	d8800215 	stw	r2,8(sp)
    3ad8:	d8c00315 	stw	r3,12(sp)
    3adc:	00077f80 	call	77f8 <__subdf3>
    3ae0:	000d883a 	mov	r6,zero
    3ae4:	01d05c34 	movhi	r7,16752
    3ae8:	1009883a 	mov	r4,r2
    3aec:	180b883a 	mov	r5,r3
    3af0:	0006f8c0 	call	6f8c <__muldf3>
    3af4:	180b883a 	mov	r5,r3
    3af8:	1009883a 	mov	r4,r2
    3afc:	182b883a 	mov	r21,r3
    3b00:	102d883a 	mov	r22,r2
    3b04:	00080f40 	call	80f4 <__fixdfsi>
    3b08:	1009883a 	mov	r4,r2
    3b0c:	00081740 	call	8174 <__floatsidf>
    3b10:	100d883a 	mov	r6,r2
    3b14:	180f883a 	mov	r7,r3
    3b18:	b009883a 	mov	r4,r22
    3b1c:	a80b883a 	mov	r5,r21
    3b20:	1027883a 	mov	r19,r2
    3b24:	1825883a 	mov	r18,r3
    3b28:	d8800415 	stw	r2,16(sp)
    3b2c:	d8c00515 	stw	r3,20(sp)
    3b30:	00077f80 	call	77f8 <__subdf3>
    3b34:	000d883a 	mov	r6,zero
    3b38:	01d05c34 	movhi	r7,16752
    3b3c:	1009883a 	mov	r4,r2
    3b40:	180b883a 	mov	r5,r3
    3b44:	0006f8c0 	call	6f8c <__muldf3>
    3b48:	000d883a 	mov	r6,zero
    3b4c:	000f883a 	mov	r7,zero
    3b50:	1009883a 	mov	r4,r2
    3b54:	180b883a 	mov	r5,r3
    3b58:	d8800615 	stw	r2,24(sp)
    3b5c:	d8c00715 	stw	r3,28(sp)
    3b60:	0006e280 	call	6e28 <__eqdf2>
    3b64:	1001431e 	bne	r2,zero,4074 <__ieee754_rem_pio2+0x6d0>
    3b68:	000f883a 	mov	r7,zero
    3b6c:	000d883a 	mov	r6,zero
    3b70:	9809883a 	mov	r4,r19
    3b74:	900b883a 	mov	r5,r18
    3b78:	0006e280 	call	6e28 <__eqdf2>
    3b7c:	100f003a 	cmpeq	r7,r2,zero
    3b80:	00800084 	movi	r2,2
    3b84:	11cfc83a 	sub	r7,r2,r7
    3b88:	00800084 	movi	r2,2
    3b8c:	d8800015 	stw	r2,0(sp)
    3b90:	00800074 	movhi	r2,1
    3b94:	109f4004 	addi	r2,r2,32000
    3b98:	d8800115 	stw	r2,4(sp)
    3b9c:	a00d883a 	mov	r6,r20
    3ba0:	800b883a 	mov	r5,r16
    3ba4:	d9000204 	addi	r4,sp,8
    3ba8:	00045b40 	call	45b4 <__kernel_rem_pio2>
    3bac:	88000d0e 	bge	r17,zero,3be4 <__ieee754_rem_pio2+0x240>
    3bb0:	81000117 	ldw	r4,4(r16)
    3bb4:	80c00317 	ldw	r3,12(r16)
    3bb8:	0085c83a 	sub	r2,zero,r2
    3bbc:	2120003c 	xorhi	r4,r4,32768
    3bc0:	18e0003c 	xorhi	r3,r3,32768
    3bc4:	81000115 	stw	r4,4(r16)
    3bc8:	80c00315 	stw	r3,12(r16)
    3bcc:	00000506 	br	3be4 <__ieee754_rem_pio2+0x240>
    3bd0:	31000015 	stw	r4,0(r6)
    3bd4:	31400115 	stw	r5,4(r6)
    3bd8:	30000215 	stw	zero,8(r6)
    3bdc:	30000315 	stw	zero,12(r6)
    3be0:	0005883a 	mov	r2,zero
    3be4:	dfc01517 	ldw	ra,84(sp)
    3be8:	df001417 	ldw	fp,80(sp)
    3bec:	ddc01317 	ldw	r23,76(sp)
    3bf0:	dd801217 	ldw	r22,72(sp)
    3bf4:	dd401117 	ldw	r21,68(sp)
    3bf8:	dd001017 	ldw	r20,64(sp)
    3bfc:	dcc00f17 	ldw	r19,60(sp)
    3c00:	dc800e17 	ldw	r18,56(sp)
    3c04:	dc400d17 	ldw	r17,52(sp)
    3c08:	dc000c17 	ldw	r16,48(sp)
    3c0c:	dec01604 	addi	sp,sp,88
    3c10:	f800283a 	ret
    3c14:	200d883a 	mov	r6,r4
    3c18:	280f883a 	mov	r7,r5
    3c1c:	00077f80 	call	77f8 <__subdf3>
    3c20:	80800215 	stw	r2,8(r16)
    3c24:	80800015 	stw	r2,0(r16)
    3c28:	80c00315 	stw	r3,12(r16)
    3c2c:	80c00115 	stw	r3,4(r16)
    3c30:	0005883a 	mov	r2,zero
    3c34:	003feb06 	br	3be4 <__alt_exception_stack_pointer+0xf8003be4>
    3c38:	01cf7474 	movhi	r7,15825
    3c3c:	9009883a 	mov	r4,r18
    3c40:	39ed1844 	addi	r7,r7,-19359
    3c44:	01869834 	movhi	r6,6752
    3c48:	180b883a 	mov	r5,r3
    3c4c:	00077f80 	call	77f8 <__subdf3>
    3c50:	018b80f4 	movhi	r6,11779
    3c54:	01cee8f4 	movhi	r7,15267
    3c58:	319c1cc4 	addi	r6,r6,28787
    3c5c:	39c66284 	addi	r7,r7,6538
    3c60:	1009883a 	mov	r4,r2
    3c64:	180b883a 	mov	r5,r3
    3c68:	1025883a 	mov	r18,r2
    3c6c:	1823883a 	mov	r17,r3
    3c70:	00077f80 	call	77f8 <__subdf3>
    3c74:	100d883a 	mov	r6,r2
    3c78:	180f883a 	mov	r7,r3
    3c7c:	9009883a 	mov	r4,r18
    3c80:	880b883a 	mov	r5,r17
    3c84:	80800015 	stw	r2,0(r16)
    3c88:	80c00115 	stw	r3,4(r16)
    3c8c:	00077f80 	call	77f8 <__subdf3>
    3c90:	018b80f4 	movhi	r6,11779
    3c94:	01cee8f4 	movhi	r7,15267
    3c98:	319c1cc4 	addi	r6,r6,28787
    3c9c:	39c66284 	addi	r7,r7,6538
    3ca0:	003f7306 	br	3a70 <__alt_exception_stack_pointer+0xf8003a70>
    3ca4:	00056180 	call	5618 <fabs>
    3ca8:	019b72b4 	movhi	r6,28106
    3cac:	01cff934 	movhi	r7,16356
    3cb0:	31b220c4 	addi	r6,r6,-14205
    3cb4:	39d7cc04 	addi	r7,r7,24368
    3cb8:	1009883a 	mov	r4,r2
    3cbc:	180b883a 	mov	r5,r3
    3cc0:	102d883a 	mov	r22,r2
    3cc4:	182b883a 	mov	r21,r3
    3cc8:	0006f8c0 	call	6f8c <__muldf3>
    3ccc:	000d883a 	mov	r6,zero
    3cd0:	01cff834 	movhi	r7,16352
    3cd4:	1009883a 	mov	r4,r2
    3cd8:	180b883a 	mov	r5,r3
    3cdc:	0005bac0 	call	5bac <__adddf3>
    3ce0:	180b883a 	mov	r5,r3
    3ce4:	1009883a 	mov	r4,r2
    3ce8:	00080f40 	call	80f4 <__fixdfsi>
    3cec:	1009883a 	mov	r4,r2
    3cf0:	1025883a 	mov	r18,r2
    3cf4:	00081740 	call	8174 <__floatsidf>
    3cf8:	01cffe74 	movhi	r7,16377
    3cfc:	39c87ec4 	addi	r7,r7,8699
    3d00:	01951034 	movhi	r6,21568
    3d04:	1009883a 	mov	r4,r2
    3d08:	180b883a 	mov	r5,r3
    3d0c:	1029883a 	mov	r20,r2
    3d10:	1827883a 	mov	r19,r3
    3d14:	0006f8c0 	call	6f8c <__muldf3>
    3d18:	b009883a 	mov	r4,r22
    3d1c:	a80b883a 	mov	r5,r21
    3d20:	100d883a 	mov	r6,r2
    3d24:	180f883a 	mov	r7,r3
    3d28:	00077f80 	call	77f8 <__subdf3>
    3d2c:	018698b4 	movhi	r6,6754
    3d30:	01cf7474 	movhi	r7,15825
    3d34:	a009883a 	mov	r4,r20
    3d38:	3198cc44 	addi	r6,r6,25393
    3d3c:	39ed1844 	addi	r7,r7,-19359
    3d40:	980b883a 	mov	r5,r19
    3d44:	1039883a 	mov	fp,r2
    3d48:	d8c00815 	stw	r3,32(sp)
    3d4c:	0006f8c0 	call	6f8c <__muldf3>
    3d50:	010007c4 	movi	r4,31
    3d54:	e017883a 	mov	r11,fp
    3d58:	da800817 	ldw	r10,32(sp)
    3d5c:	102d883a 	mov	r22,r2
    3d60:	182b883a 	mov	r21,r3
    3d64:	24802816 	blt	r4,r18,3e08 <__ieee754_rem_pio2+0x464>
    3d68:	913fffc4 	addi	r4,r18,-1
    3d6c:	2109883a 	add	r4,r4,r4
    3d70:	01400074 	movhi	r5,1
    3d74:	2109883a 	add	r4,r4,r4
    3d78:	295f2004 	addi	r5,r5,31872
    3d7c:	2909883a 	add	r4,r5,r4
    3d80:	21000017 	ldw	r4,0(r4)
    3d84:	b9002026 	beq	r23,r4,3e08 <__ieee754_rem_pio2+0x464>
    3d88:	100d883a 	mov	r6,r2
    3d8c:	180f883a 	mov	r7,r3
    3d90:	e009883a 	mov	r4,fp
    3d94:	500b883a 	mov	r5,r10
    3d98:	da800b15 	stw	r10,44(sp)
    3d9c:	df000a15 	stw	fp,40(sp)
    3da0:	00077f80 	call	77f8 <__subdf3>
    3da4:	da800b17 	ldw	r10,44(sp)
    3da8:	dac00a17 	ldw	r11,40(sp)
    3dac:	1019883a 	mov	r12,r2
    3db0:	1813883a 	mov	r9,r3
    3db4:	80800015 	stw	r2,0(r16)
    3db8:	80c00115 	stw	r3,4(r16)
    3dbc:	600d883a 	mov	r6,r12
    3dc0:	480f883a 	mov	r7,r9
    3dc4:	5809883a 	mov	r4,r11
    3dc8:	500b883a 	mov	r5,r10
    3dcc:	da400b15 	stw	r9,44(sp)
    3dd0:	db000a15 	stw	r12,40(sp)
    3dd4:	00077f80 	call	77f8 <__subdf3>
    3dd8:	b00d883a 	mov	r6,r22
    3ddc:	a80f883a 	mov	r7,r21
    3de0:	1009883a 	mov	r4,r2
    3de4:	180b883a 	mov	r5,r3
    3de8:	00077f80 	call	77f8 <__subdf3>
    3dec:	80800215 	stw	r2,8(r16)
    3df0:	80c00315 	stw	r3,12(r16)
    3df4:	da400b17 	ldw	r9,44(sp)
    3df8:	db000a17 	ldw	r12,40(sp)
    3dfc:	88009f16 	blt	r17,zero,407c <__ieee754_rem_pio2+0x6d8>
    3e00:	9005883a 	mov	r2,r18
    3e04:	003f7706 	br	3be4 <__alt_exception_stack_pointer+0xf8003be4>
    3e08:	d9400817 	ldw	r5,32(sp)
    3e0c:	100d883a 	mov	r6,r2
    3e10:	180f883a 	mov	r7,r3
    3e14:	e009883a 	mov	r4,fp
    3e18:	da800b15 	stw	r10,44(sp)
    3e1c:	dac00a15 	stw	r11,40(sp)
    3e20:	00077f80 	call	77f8 <__subdf3>
    3e24:	1019883a 	mov	r12,r2
    3e28:	1804d53a 	srli	r2,r3,20
    3e2c:	b811d53a 	srai	r8,r23,20
    3e30:	1813883a 	mov	r9,r3
    3e34:	1081ffcc 	andi	r2,r2,2047
    3e38:	80c00115 	stw	r3,4(r16)
    3e3c:	83000015 	stw	r12,0(r16)
    3e40:	4085c83a 	sub	r2,r8,r2
    3e44:	00c00404 	movi	r3,16
    3e48:	da800b17 	ldw	r10,44(sp)
    3e4c:	dac00a17 	ldw	r11,40(sp)
    3e50:	18bfda0e 	bge	r3,r2,3dbc <__alt_exception_stack_pointer+0xf8003dbc>
    3e54:	01cf7474 	movhi	r7,15825
    3e58:	39ed1844 	addi	r7,r7,-19359
    3e5c:	01869834 	movhi	r6,6752
    3e60:	a009883a 	mov	r4,r20
    3e64:	980b883a 	mov	r5,r19
    3e68:	da000a15 	stw	r8,40(sp)
    3e6c:	0006f8c0 	call	6f8c <__muldf3>
    3e70:	d9400817 	ldw	r5,32(sp)
    3e74:	100d883a 	mov	r6,r2
    3e78:	180f883a 	mov	r7,r3
    3e7c:	e009883a 	mov	r4,fp
    3e80:	102d883a 	mov	r22,r2
    3e84:	182b883a 	mov	r21,r3
    3e88:	00077f80 	call	77f8 <__subdf3>
    3e8c:	d9400817 	ldw	r5,32(sp)
    3e90:	100d883a 	mov	r6,r2
    3e94:	180f883a 	mov	r7,r3
    3e98:	e009883a 	mov	r4,fp
    3e9c:	182f883a 	mov	r23,r3
    3ea0:	d8800915 	stw	r2,36(sp)
    3ea4:	00077f80 	call	77f8 <__subdf3>
    3ea8:	b00d883a 	mov	r6,r22
    3eac:	a80f883a 	mov	r7,r21
    3eb0:	1009883a 	mov	r4,r2
    3eb4:	180b883a 	mov	r5,r3
    3eb8:	00077f80 	call	77f8 <__subdf3>
    3ebc:	018b80f4 	movhi	r6,11779
    3ec0:	01cee8f4 	movhi	r7,15267
    3ec4:	319c1cc4 	addi	r6,r6,28787
    3ec8:	39c66284 	addi	r7,r7,6538
    3ecc:	a009883a 	mov	r4,r20
    3ed0:	980b883a 	mov	r5,r19
    3ed4:	102d883a 	mov	r22,r2
    3ed8:	182b883a 	mov	r21,r3
    3edc:	0006f8c0 	call	6f8c <__muldf3>
    3ee0:	b00d883a 	mov	r6,r22
    3ee4:	a80f883a 	mov	r7,r21
    3ee8:	1009883a 	mov	r4,r2
    3eec:	180b883a 	mov	r5,r3
    3ef0:	00077f80 	call	77f8 <__subdf3>
    3ef4:	d9000917 	ldw	r4,36(sp)
    3ef8:	100d883a 	mov	r6,r2
    3efc:	180f883a 	mov	r7,r3
    3f00:	b80b883a 	mov	r5,r23
    3f04:	102d883a 	mov	r22,r2
    3f08:	182b883a 	mov	r21,r3
    3f0c:	00077f80 	call	77f8 <__subdf3>
    3f10:	1019883a 	mov	r12,r2
    3f14:	1804d53a 	srli	r2,r3,20
    3f18:	da000a17 	ldw	r8,40(sp)
    3f1c:	83000015 	stw	r12,0(r16)
    3f20:	1081ffcc 	andi	r2,r2,2047
    3f24:	4091c83a 	sub	r8,r8,r2
    3f28:	80c00115 	stw	r3,4(r16)
    3f2c:	00800c44 	movi	r2,49
    3f30:	1813883a 	mov	r9,r3
    3f34:	1200730e 	bge	r2,r8,4104 <__ieee754_rem_pio2+0x760>
    3f38:	01cee8f4 	movhi	r7,15267
    3f3c:	39c66284 	addi	r7,r7,6538
    3f40:	018b8034 	movhi	r6,11776
    3f44:	a009883a 	mov	r4,r20
    3f48:	980b883a 	mov	r5,r19
    3f4c:	0006f8c0 	call	6f8c <__muldf3>
    3f50:	d9000917 	ldw	r4,36(sp)
    3f54:	100d883a 	mov	r6,r2
    3f58:	180f883a 	mov	r7,r3
    3f5c:	b80b883a 	mov	r5,r23
    3f60:	102d883a 	mov	r22,r2
    3f64:	182b883a 	mov	r21,r3
    3f68:	00077f80 	call	77f8 <__subdf3>
    3f6c:	d9000917 	ldw	r4,36(sp)
    3f70:	100d883a 	mov	r6,r2
    3f74:	180f883a 	mov	r7,r3
    3f78:	b80b883a 	mov	r5,r23
    3f7c:	d8c00b15 	stw	r3,44(sp)
    3f80:	d8800a15 	stw	r2,40(sp)
    3f84:	00077f80 	call	77f8 <__subdf3>
    3f88:	b00d883a 	mov	r6,r22
    3f8c:	a80f883a 	mov	r7,r21
    3f90:	1009883a 	mov	r4,r2
    3f94:	180b883a 	mov	r5,r3
    3f98:	00077f80 	call	77f8 <__subdf3>
    3f9c:	01894834 	movhi	r6,9504
    3fa0:	01ce5f34 	movhi	r7,14716
    3fa4:	31927044 	addi	r6,r6,18881
    3fa8:	39e0e684 	addi	r7,r7,-31846
    3fac:	a009883a 	mov	r4,r20
    3fb0:	980b883a 	mov	r5,r19
    3fb4:	102d883a 	mov	r22,r2
    3fb8:	182b883a 	mov	r21,r3
    3fbc:	0006f8c0 	call	6f8c <__muldf3>
    3fc0:	b00d883a 	mov	r6,r22
    3fc4:	a80f883a 	mov	r7,r21
    3fc8:	1009883a 	mov	r4,r2
    3fcc:	180b883a 	mov	r5,r3
    3fd0:	00077f80 	call	77f8 <__subdf3>
    3fd4:	dac00a17 	ldw	r11,40(sp)
    3fd8:	da800b17 	ldw	r10,44(sp)
    3fdc:	102d883a 	mov	r22,r2
    3fe0:	182b883a 	mov	r21,r3
    3fe4:	100d883a 	mov	r6,r2
    3fe8:	180f883a 	mov	r7,r3
    3fec:	5809883a 	mov	r4,r11
    3ff0:	500b883a 	mov	r5,r10
    3ff4:	003f6a06 	br	3da0 <__alt_exception_stack_pointer+0xf8003da0>
    3ff8:	0005bac0 	call	5bac <__adddf3>
    3ffc:	1025883a 	mov	r18,r2
    4000:	008ffe74 	movhi	r2,16377
    4004:	10887ec4 	addi	r2,r2,8699
    4008:	1823883a 	mov	r17,r3
    400c:	b8802226 	beq	r23,r2,4098 <__ieee754_rem_pio2+0x6f4>
    4010:	018698b4 	movhi	r6,6754
    4014:	01cf7474 	movhi	r7,15825
    4018:	3198cc44 	addi	r6,r6,25393
    401c:	39ed1844 	addi	r7,r7,-19359
    4020:	9009883a 	mov	r4,r18
    4024:	180b883a 	mov	r5,r3
    4028:	0005bac0 	call	5bac <__adddf3>
    402c:	100d883a 	mov	r6,r2
    4030:	180f883a 	mov	r7,r3
    4034:	9009883a 	mov	r4,r18
    4038:	880b883a 	mov	r5,r17
    403c:	80800015 	stw	r2,0(r16)
    4040:	80c00115 	stw	r3,4(r16)
    4044:	00077f80 	call	77f8 <__subdf3>
    4048:	018698b4 	movhi	r6,6754
    404c:	01cf7474 	movhi	r7,15825
    4050:	3198cc44 	addi	r6,r6,25393
    4054:	39ed1844 	addi	r7,r7,-19359
    4058:	1009883a 	mov	r4,r2
    405c:	180b883a 	mov	r5,r3
    4060:	0005bac0 	call	5bac <__adddf3>
    4064:	80800215 	stw	r2,8(r16)
    4068:	80c00315 	stw	r3,12(r16)
    406c:	00bfffc4 	movi	r2,-1
    4070:	003edc06 	br	3be4 <__alt_exception_stack_pointer+0xf8003be4>
    4074:	01c000c4 	movi	r7,3
    4078:	003ec306 	br	3b88 <__alt_exception_stack_pointer+0xf8003b88>
    407c:	4a60003c 	xorhi	r9,r9,32768
    4080:	18e0003c 	xorhi	r3,r3,32768
    4084:	83000015 	stw	r12,0(r16)
    4088:	82400115 	stw	r9,4(r16)
    408c:	80c00315 	stw	r3,12(r16)
    4090:	0485c83a 	sub	r2,zero,r18
    4094:	003ed306 	br	3be4 <__alt_exception_stack_pointer+0xf8003be4>
    4098:	01cf7474 	movhi	r7,15825
    409c:	9009883a 	mov	r4,r18
    40a0:	39ed1844 	addi	r7,r7,-19359
    40a4:	01869834 	movhi	r6,6752
    40a8:	180b883a 	mov	r5,r3
    40ac:	0005bac0 	call	5bac <__adddf3>
    40b0:	018b80f4 	movhi	r6,11779
    40b4:	01cee8f4 	movhi	r7,15267
    40b8:	319c1cc4 	addi	r6,r6,28787
    40bc:	39c66284 	addi	r7,r7,6538
    40c0:	1009883a 	mov	r4,r2
    40c4:	180b883a 	mov	r5,r3
    40c8:	1025883a 	mov	r18,r2
    40cc:	1823883a 	mov	r17,r3
    40d0:	0005bac0 	call	5bac <__adddf3>
    40d4:	100d883a 	mov	r6,r2
    40d8:	180f883a 	mov	r7,r3
    40dc:	9009883a 	mov	r4,r18
    40e0:	880b883a 	mov	r5,r17
    40e4:	80800015 	stw	r2,0(r16)
    40e8:	80c00115 	stw	r3,4(r16)
    40ec:	00077f80 	call	77f8 <__subdf3>
    40f0:	018b80f4 	movhi	r6,11779
    40f4:	01cee8f4 	movhi	r7,15267
    40f8:	319c1cc4 	addi	r6,r6,28787
    40fc:	39c66284 	addi	r7,r7,6538
    4100:	003fd506 	br	4058 <__alt_exception_stack_pointer+0xf8004058>
    4104:	dac00917 	ldw	r11,36(sp)
    4108:	b815883a 	mov	r10,r23
    410c:	003f2b06 	br	3dbc <__alt_exception_stack_pointer+0xf8003dbc>

00004110 <__kernel_cos>:
    4110:	defff304 	addi	sp,sp,-52
    4114:	dc000315 	stw	r16,12(sp)
    4118:	04200034 	movhi	r16,32768
    411c:	843fffc4 	addi	r16,r16,-1
    4120:	008f9034 	movhi	r2,15936
    4124:	df000b15 	stw	fp,44(sp)
    4128:	ddc00a15 	stw	r23,40(sp)
    412c:	dd800915 	stw	r22,36(sp)
    4130:	dcc00615 	stw	r19,24(sp)
    4134:	dfc00c15 	stw	ra,48(sp)
    4138:	dd400815 	stw	r21,32(sp)
    413c:	dd000715 	stw	r20,28(sp)
    4140:	dc800515 	stw	r18,20(sp)
    4144:	dc400415 	stw	r17,16(sp)
    4148:	2c20703a 	and	r16,r5,r16
    414c:	10bfffc4 	addi	r2,r2,-1
    4150:	2827883a 	mov	r19,r5
    4154:	202d883a 	mov	r22,r4
    4158:	302f883a 	mov	r23,r6
    415c:	3839883a 	mov	fp,r7
    4160:	14007516 	blt	r2,r16,4338 <__kernel_cos+0x228>
    4164:	00080f40 	call	80f4 <__fixdfsi>
    4168:	10010f26 	beq	r2,zero,45a8 <__kernel_cos+0x498>
    416c:	b00d883a 	mov	r6,r22
    4170:	980f883a 	mov	r7,r19
    4174:	b009883a 	mov	r4,r22
    4178:	980b883a 	mov	r5,r19
    417c:	0006f8c0 	call	6f8c <__muldf3>
    4180:	01afa234 	movhi	r6,48776
    4184:	01ef6a74 	movhi	r7,48553
    4188:	318e3504 	addi	r6,r6,14548
    418c:	39feba44 	addi	r7,r7,-1303
    4190:	1009883a 	mov	r4,r2
    4194:	180b883a 	mov	r5,r3
    4198:	102b883a 	mov	r21,r2
    419c:	1829883a 	mov	r20,r3
    41a0:	0006f8c0 	call	6f8c <__muldf3>
    41a4:	01af6d74 	movhi	r6,48565
    41a8:	01cf88b4 	movhi	r7,15906
    41ac:	31ac7104 	addi	r6,r6,-20028
    41b0:	39fba784 	addi	r7,r7,-4450
    41b4:	1009883a 	mov	r4,r2
    41b8:	180b883a 	mov	r5,r3
    41bc:	0005bac0 	call	5bac <__adddf3>
    41c0:	a80d883a 	mov	r6,r21
    41c4:	a00f883a 	mov	r7,r20
    41c8:	1009883a 	mov	r4,r2
    41cc:	180b883a 	mov	r5,r3
    41d0:	0006f8c0 	call	6f8c <__muldf3>
    41d4:	01a02734 	movhi	r6,32924
    41d8:	01cfa4b4 	movhi	r7,16018
    41dc:	3194ab44 	addi	r6,r6,21165
    41e0:	39df93c4 	addi	r7,r7,32335
    41e4:	1009883a 	mov	r4,r2
    41e8:	180b883a 	mov	r5,r3
    41ec:	00077f80 	call	77f8 <__subdf3>
    41f0:	a80d883a 	mov	r6,r21
    41f4:	a00f883a 	mov	r7,r20
    41f8:	1009883a 	mov	r4,r2
    41fc:	180b883a 	mov	r5,r3
    4200:	0006f8c0 	call	6f8c <__muldf3>
    4204:	018672f4 	movhi	r6,6603
    4208:	01cfbeb4 	movhi	r7,16122
    420c:	31856404 	addi	r6,r6,5520
    4210:	39c06804 	addi	r7,r7,416
    4214:	1009883a 	mov	r4,r2
    4218:	180b883a 	mov	r5,r3
    421c:	0005bac0 	call	5bac <__adddf3>
    4220:	a80d883a 	mov	r6,r21
    4224:	a00f883a 	mov	r7,r20
    4228:	1009883a 	mov	r4,r2
    422c:	180b883a 	mov	r5,r3
    4230:	0006f8c0 	call	6f8c <__muldf3>
    4234:	0185b074 	movhi	r6,5825
    4238:	01cfd5f4 	movhi	r7,16215
    423c:	31945dc4 	addi	r6,r6,20855
    4240:	39f05b04 	addi	r7,r7,-16020
    4244:	1009883a 	mov	r4,r2
    4248:	180b883a 	mov	r5,r3
    424c:	00077f80 	call	77f8 <__subdf3>
    4250:	a80d883a 	mov	r6,r21
    4254:	a00f883a 	mov	r7,r20
    4258:	1009883a 	mov	r4,r2
    425c:	180b883a 	mov	r5,r3
    4260:	0006f8c0 	call	6f8c <__muldf3>
    4264:	01955574 	movhi	r6,21845
    4268:	01cfe974 	movhi	r7,16293
    426c:	31955304 	addi	r6,r6,21836
    4270:	39d55544 	addi	r7,r7,21845
    4274:	1009883a 	mov	r4,r2
    4278:	180b883a 	mov	r5,r3
    427c:	0005bac0 	call	5bac <__adddf3>
    4280:	a80d883a 	mov	r6,r21
    4284:	a00f883a 	mov	r7,r20
    4288:	1009883a 	mov	r4,r2
    428c:	180b883a 	mov	r5,r3
    4290:	0006f8c0 	call	6f8c <__muldf3>
    4294:	1017883a 	mov	r11,r2
    4298:	1815883a 	mov	r10,r3
    429c:	a809883a 	mov	r4,r21
    42a0:	a00b883a 	mov	r5,r20
    42a4:	000d883a 	mov	r6,zero
    42a8:	01cff834 	movhi	r7,16352
    42ac:	da800215 	stw	r10,8(sp)
    42b0:	dac00115 	stw	r11,4(sp)
    42b4:	0006f8c0 	call	6f8c <__muldf3>
    42b8:	dac00117 	ldw	r11,4(sp)
    42bc:	da800217 	ldw	r10,8(sp)
    42c0:	a809883a 	mov	r4,r21
    42c4:	580d883a 	mov	r6,r11
    42c8:	500f883a 	mov	r7,r10
    42cc:	a00b883a 	mov	r5,r20
    42d0:	1023883a 	mov	r17,r2
    42d4:	1821883a 	mov	r16,r3
    42d8:	0006f8c0 	call	6f8c <__muldf3>
    42dc:	b80d883a 	mov	r6,r23
    42e0:	e00f883a 	mov	r7,fp
    42e4:	b009883a 	mov	r4,r22
    42e8:	980b883a 	mov	r5,r19
    42ec:	1029883a 	mov	r20,r2
    42f0:	1825883a 	mov	r18,r3
    42f4:	0006f8c0 	call	6f8c <__muldf3>
    42f8:	a009883a 	mov	r4,r20
    42fc:	900b883a 	mov	r5,r18
    4300:	100d883a 	mov	r6,r2
    4304:	180f883a 	mov	r7,r3
    4308:	00077f80 	call	77f8 <__subdf3>
    430c:	8809883a 	mov	r4,r17
    4310:	800b883a 	mov	r5,r16
    4314:	100d883a 	mov	r6,r2
    4318:	180f883a 	mov	r7,r3
    431c:	00077f80 	call	77f8 <__subdf3>
    4320:	100d883a 	mov	r6,r2
    4324:	180f883a 	mov	r7,r3
    4328:	0009883a 	mov	r4,zero
    432c:	014ffc34 	movhi	r5,16368
    4330:	00077f80 	call	77f8 <__subdf3>
    4334:	00008b06 	br	4564 <__kernel_cos+0x454>
    4338:	200d883a 	mov	r6,r4
    433c:	280f883a 	mov	r7,r5
    4340:	0006f8c0 	call	6f8c <__muldf3>
    4344:	01afa234 	movhi	r6,48776
    4348:	01ef6a74 	movhi	r7,48553
    434c:	318e3504 	addi	r6,r6,14548
    4350:	39feba44 	addi	r7,r7,-1303
    4354:	1009883a 	mov	r4,r2
    4358:	180b883a 	mov	r5,r3
    435c:	1025883a 	mov	r18,r2
    4360:	1823883a 	mov	r17,r3
    4364:	0006f8c0 	call	6f8c <__muldf3>
    4368:	01af6d74 	movhi	r6,48565
    436c:	01cf88b4 	movhi	r7,15906
    4370:	31ac7104 	addi	r6,r6,-20028
    4374:	39fba784 	addi	r7,r7,-4450
    4378:	1009883a 	mov	r4,r2
    437c:	180b883a 	mov	r5,r3
    4380:	0005bac0 	call	5bac <__adddf3>
    4384:	900d883a 	mov	r6,r18
    4388:	880f883a 	mov	r7,r17
    438c:	1009883a 	mov	r4,r2
    4390:	180b883a 	mov	r5,r3
    4394:	0006f8c0 	call	6f8c <__muldf3>
    4398:	01a02734 	movhi	r6,32924
    439c:	01cfa4b4 	movhi	r7,16018
    43a0:	3194ab44 	addi	r6,r6,21165
    43a4:	39df93c4 	addi	r7,r7,32335
    43a8:	1009883a 	mov	r4,r2
    43ac:	180b883a 	mov	r5,r3
    43b0:	00077f80 	call	77f8 <__subdf3>
    43b4:	900d883a 	mov	r6,r18
    43b8:	880f883a 	mov	r7,r17
    43bc:	1009883a 	mov	r4,r2
    43c0:	180b883a 	mov	r5,r3
    43c4:	0006f8c0 	call	6f8c <__muldf3>
    43c8:	018672f4 	movhi	r6,6603
    43cc:	01cfbeb4 	movhi	r7,16122
    43d0:	31856404 	addi	r6,r6,5520
    43d4:	39c06804 	addi	r7,r7,416
    43d8:	1009883a 	mov	r4,r2
    43dc:	180b883a 	mov	r5,r3
    43e0:	0005bac0 	call	5bac <__adddf3>
    43e4:	900d883a 	mov	r6,r18
    43e8:	880f883a 	mov	r7,r17
    43ec:	1009883a 	mov	r4,r2
    43f0:	180b883a 	mov	r5,r3
    43f4:	0006f8c0 	call	6f8c <__muldf3>
    43f8:	0185b074 	movhi	r6,5825
    43fc:	01cfd5f4 	movhi	r7,16215
    4400:	31945dc4 	addi	r6,r6,20855
    4404:	39f05b04 	addi	r7,r7,-16020
    4408:	1009883a 	mov	r4,r2
    440c:	180b883a 	mov	r5,r3
    4410:	00077f80 	call	77f8 <__subdf3>
    4414:	900d883a 	mov	r6,r18
    4418:	880f883a 	mov	r7,r17
    441c:	1009883a 	mov	r4,r2
    4420:	180b883a 	mov	r5,r3
    4424:	0006f8c0 	call	6f8c <__muldf3>
    4428:	01955574 	movhi	r6,21845
    442c:	01cfe974 	movhi	r7,16293
    4430:	31955304 	addi	r6,r6,21836
    4434:	39d55544 	addi	r7,r7,21845
    4438:	1009883a 	mov	r4,r2
    443c:	180b883a 	mov	r5,r3
    4440:	0005bac0 	call	5bac <__adddf3>
    4444:	900d883a 	mov	r6,r18
    4448:	880f883a 	mov	r7,r17
    444c:	1009883a 	mov	r4,r2
    4450:	180b883a 	mov	r5,r3
    4454:	0006f8c0 	call	6f8c <__muldf3>
    4458:	1013883a 	mov	r9,r2
    445c:	1017883a 	mov	r11,r2
    4460:	008ff4f4 	movhi	r2,16339
    4464:	108ccc84 	addi	r2,r2,13106
    4468:	1811883a 	mov	r8,r3
    446c:	902b883a 	mov	r21,r18
    4470:	8829883a 	mov	r20,r17
    4474:	1815883a 	mov	r10,r3
    4478:	143f880e 	bge	r2,r16,429c <__alt_exception_stack_pointer+0xf800429c>
    447c:	008ffa74 	movhi	r2,16361
    4480:	14004416 	blt	r2,r16,4594 <__kernel_cos+0x484>
    4484:	00bff834 	movhi	r2,65504
    4488:	80a1883a 	add	r16,r16,r2
    448c:	000d883a 	mov	r6,zero
    4490:	800f883a 	mov	r7,r16
    4494:	0009883a 	mov	r4,zero
    4498:	014ffc34 	movhi	r5,16368
    449c:	da400115 	stw	r9,4(sp)
    44a0:	d8c00215 	stw	r3,8(sp)
    44a4:	00077f80 	call	77f8 <__subdf3>
    44a8:	da000217 	ldw	r8,8(sp)
    44ac:	da400117 	ldw	r9,4(sp)
    44b0:	102b883a 	mov	r21,r2
    44b4:	d8c00015 	stw	r3,0(sp)
    44b8:	9009883a 	mov	r4,r18
    44bc:	880b883a 	mov	r5,r17
    44c0:	000d883a 	mov	r6,zero
    44c4:	01cff834 	movhi	r7,16352
    44c8:	da000215 	stw	r8,8(sp)
    44cc:	da400115 	stw	r9,4(sp)
    44d0:	0006f8c0 	call	6f8c <__muldf3>
    44d4:	800f883a 	mov	r7,r16
    44d8:	000d883a 	mov	r6,zero
    44dc:	1009883a 	mov	r4,r2
    44e0:	180b883a 	mov	r5,r3
    44e4:	00077f80 	call	77f8 <__subdf3>
    44e8:	da400117 	ldw	r9,4(sp)
    44ec:	da000217 	ldw	r8,8(sp)
    44f0:	9009883a 	mov	r4,r18
    44f4:	480d883a 	mov	r6,r9
    44f8:	400f883a 	mov	r7,r8
    44fc:	880b883a 	mov	r5,r17
    4500:	1029883a 	mov	r20,r2
    4504:	1821883a 	mov	r16,r3
    4508:	0006f8c0 	call	6f8c <__muldf3>
    450c:	b80d883a 	mov	r6,r23
    4510:	e00f883a 	mov	r7,fp
    4514:	b009883a 	mov	r4,r22
    4518:	980b883a 	mov	r5,r19
    451c:	1025883a 	mov	r18,r2
    4520:	1823883a 	mov	r17,r3
    4524:	0006f8c0 	call	6f8c <__muldf3>
    4528:	100d883a 	mov	r6,r2
    452c:	180f883a 	mov	r7,r3
    4530:	9009883a 	mov	r4,r18
    4534:	880b883a 	mov	r5,r17
    4538:	00077f80 	call	77f8 <__subdf3>
    453c:	100d883a 	mov	r6,r2
    4540:	180f883a 	mov	r7,r3
    4544:	a009883a 	mov	r4,r20
    4548:	800b883a 	mov	r5,r16
    454c:	00077f80 	call	77f8 <__subdf3>
    4550:	d9400017 	ldw	r5,0(sp)
    4554:	100d883a 	mov	r6,r2
    4558:	180f883a 	mov	r7,r3
    455c:	a809883a 	mov	r4,r21
    4560:	00077f80 	call	77f8 <__subdf3>
    4564:	dfc00c17 	ldw	ra,48(sp)
    4568:	df000b17 	ldw	fp,44(sp)
    456c:	ddc00a17 	ldw	r23,40(sp)
    4570:	dd800917 	ldw	r22,36(sp)
    4574:	dd400817 	ldw	r21,32(sp)
    4578:	dd000717 	ldw	r20,28(sp)
    457c:	dcc00617 	ldw	r19,24(sp)
    4580:	dc800517 	ldw	r18,20(sp)
    4584:	dc400417 	ldw	r17,16(sp)
    4588:	dc000317 	ldw	r16,12(sp)
    458c:	dec00d04 	addi	sp,sp,52
    4590:	f800283a 	ret
    4594:	008ff9f4 	movhi	r2,16359
    4598:	002b883a 	mov	r21,zero
    459c:	d8800015 	stw	r2,0(sp)
    45a0:	040ff4b4 	movhi	r16,16338
    45a4:	003fc406 	br	44b8 <__alt_exception_stack_pointer+0xf80044b8>
    45a8:	0005883a 	mov	r2,zero
    45ac:	00cffc34 	movhi	r3,16368
    45b0:	003fec06 	br	4564 <__alt_exception_stack_pointer+0xf8004564>

000045b4 <__kernel_rem_pio2>:
    45b4:	deff5a04 	addi	sp,sp,-664
    45b8:	da00a617 	ldw	r8,664(sp)
    45bc:	00c00074 	movhi	r3,1
    45c0:	18df9204 	addi	r3,r3,32328
    45c4:	4205883a 	add	r2,r8,r8
    45c8:	1085883a 	add	r2,r2,r2
    45cc:	1885883a 	add	r2,r3,r2
    45d0:	d9008e15 	stw	r4,568(sp)
    45d4:	d9408f15 	stw	r5,572(sp)
    45d8:	313fff44 	addi	r4,r6,-3
    45dc:	01400604 	movi	r5,24
    45e0:	dd80a215 	stw	r22,648(sp)
    45e4:	dc009c15 	stw	r16,624(sp)
    45e8:	dfc0a515 	stw	ra,660(sp)
    45ec:	df00a415 	stw	fp,656(sp)
    45f0:	ddc0a315 	stw	r23,652(sp)
    45f4:	dd40a115 	stw	r21,644(sp)
    45f8:	dd00a015 	stw	r20,640(sp)
    45fc:	dcc09f15 	stw	r19,636(sp)
    4600:	dc809e15 	stw	r18,632(sp)
    4604:	dc409d15 	stw	r17,628(sp)
    4608:	3021883a 	mov	r16,r6
    460c:	d9c09315 	stw	r7,588(sp)
    4610:	15800017 	ldw	r22,0(r2)
    4614:	00059d00 	call	59d0 <__divsi3>
    4618:	da009317 	ldw	r8,588(sp)
    461c:	d8809215 	stw	r2,584(sp)
    4620:	423fffc4 	addi	r8,r8,-1
    4624:	da008d15 	stw	r8,564(sp)
    4628:	10033d16 	blt	r2,zero,5320 <__kernel_rem_pio2+0xd6c>
    462c:	da009217 	ldw	r8,584(sp)
    4630:	017ffa04 	movi	r5,-24
    4634:	42000044 	addi	r8,r8,1
    4638:	4009883a 	mov	r4,r8
    463c:	da009515 	stw	r8,596(sp)
    4640:	0005b840 	call	5b84 <__mulsi3>
    4644:	da008d17 	ldw	r8,564(sp)
    4648:	1421883a 	add	r16,r2,r16
    464c:	d8809217 	ldw	r2,584(sp)
    4650:	b207883a 	add	r3,r22,r8
    4654:	dc009015 	stw	r16,576(sp)
    4658:	1223c83a 	sub	r17,r2,r8
    465c:	18001016 	blt	r3,zero,46a0 <__kernel_rem_pio2+0xec>
    4660:	da00a717 	ldw	r8,668(sp)
    4664:	8c65883a 	add	r18,r17,r17
    4668:	94a5883a 	add	r18,r18,r18
    466c:	1c47883a 	add	r3,r3,r17
    4670:	dcc05004 	addi	r19,sp,320
    4674:	44a5883a 	add	r18,r8,r18
    4678:	1c000044 	addi	r16,r3,1
    467c:	88015316 	blt	r17,zero,4bcc <__kernel_rem_pio2+0x618>
    4680:	91000017 	ldw	r4,0(r18)
    4684:	00081740 	call	8174 <__floatsidf>
    4688:	98800015 	stw	r2,0(r19)
    468c:	98c00115 	stw	r3,4(r19)
    4690:	8c400044 	addi	r17,r17,1
    4694:	9cc00204 	addi	r19,r19,8
    4698:	94800104 	addi	r18,r18,4
    469c:	8c3ff71e 	bne	r17,r16,467c <__alt_exception_stack_pointer+0xf800467c>
    46a0:	b0002816 	blt	r22,zero,4744 <__kernel_rem_pio2+0x190>
    46a4:	da008d17 	ldw	r8,564(sp)
    46a8:	b4c00044 	addi	r19,r22,1
    46ac:	982690fa 	slli	r19,r19,3
    46b0:	402490fa 	slli	r18,r8,3
    46b4:	da008e17 	ldw	r8,568(sp)
    46b8:	d8805004 	addi	r2,sp,320
    46bc:	94000204 	addi	r16,r18,8
    46c0:	d823883a 	mov	r17,sp
    46c4:	14a5883a 	add	r18,r2,r18
    46c8:	dcef883a 	add	r23,sp,r19
    46cc:	4421883a 	add	r16,r8,r16
    46d0:	dd809115 	stw	r22,580(sp)
    46d4:	4039883a 	mov	fp,r8
    46d8:	da008d17 	ldw	r8,564(sp)
    46dc:	40016016 	blt	r8,zero,4c60 <__kernel_rem_pio2+0x6ac>
    46e0:	e027883a 	mov	r19,fp
    46e4:	9029883a 	mov	r20,r18
    46e8:	002d883a 	mov	r22,zero
    46ec:	002b883a 	mov	r21,zero
    46f0:	a1800017 	ldw	r6,0(r20)
    46f4:	a1c00117 	ldw	r7,4(r20)
    46f8:	99000017 	ldw	r4,0(r19)
    46fc:	99400117 	ldw	r5,4(r19)
    4700:	9cc00204 	addi	r19,r19,8
    4704:	a53ffe04 	addi	r20,r20,-8
    4708:	0006f8c0 	call	6f8c <__muldf3>
    470c:	b009883a 	mov	r4,r22
    4710:	a80b883a 	mov	r5,r21
    4714:	100d883a 	mov	r6,r2
    4718:	180f883a 	mov	r7,r3
    471c:	0005bac0 	call	5bac <__adddf3>
    4720:	102d883a 	mov	r22,r2
    4724:	182b883a 	mov	r21,r3
    4728:	9c3ff11e 	bne	r19,r16,46f0 <__alt_exception_stack_pointer+0xf80046f0>
    472c:	8d800015 	stw	r22,0(r17)
    4730:	8d400115 	stw	r21,4(r17)
    4734:	8c400204 	addi	r17,r17,8
    4738:	94800204 	addi	r18,r18,8
    473c:	8dffe61e 	bne	r17,r23,46d8 <__alt_exception_stack_pointer+0xf80046d8>
    4740:	dd809117 	ldw	r22,580(sp)
    4744:	00d00034 	movhi	r3,16384
    4748:	da009317 	ldw	r8,588(sp)
    474c:	18ffff84 	addi	r3,r3,-2
    4750:	b0c7883a 	add	r3,r22,r3
    4754:	18c7883a 	add	r3,r3,r3
    4758:	402090fa 	slli	r16,r8,3
    475c:	18c7883a 	add	r3,r3,r3
    4760:	da007804 	addi	r8,sp,480
    4764:	40d1883a 	add	r8,r8,r3
    4768:	b0bfffc4 	addi	r2,r22,-1
    476c:	da009615 	stw	r8,600(sp)
    4770:	da008e17 	ldw	r8,568(sp)
    4774:	1085883a 	add	r2,r2,r2
    4778:	1085883a 	add	r2,r2,r2
    477c:	19000104 	addi	r4,r3,4
    4780:	d885883a 	add	r2,sp,r2
    4784:	4421883a 	add	r16,r8,r16
    4788:	da007804 	addi	r8,sp,480
    478c:	4111883a 	add	r8,r8,r4
    4790:	10807804 	addi	r2,r2,480
    4794:	da009715 	stw	r8,604(sp)
    4798:	b025883a 	mov	r18,r22
    479c:	d8809815 	stw	r2,608(sp)
    47a0:	dd809415 	stw	r22,592(sp)
    47a4:	900490fa 	slli	r2,r18,3
    47a8:	d885883a 	add	r2,sp,r2
    47ac:	17000017 	ldw	fp,0(r2)
    47b0:	15400117 	ldw	r21,4(r2)
    47b4:	04802b0e 	bge	zero,r18,4864 <__kernel_rem_pio2+0x2b0>
    47b8:	00880034 	movhi	r2,8192
    47bc:	10bfffc4 	addi	r2,r2,-1
    47c0:	90a9883a 	add	r20,r18,r2
    47c4:	a02890fa 	slli	r20,r20,3
    47c8:	dc407804 	addi	r17,sp,480
    47cc:	dcfffe04 	addi	r19,sp,-8
    47d0:	dd29883a 	add	r20,sp,r20
    47d4:	000d883a 	mov	r6,zero
    47d8:	01cf9c34 	movhi	r7,15984
    47dc:	e009883a 	mov	r4,fp
    47e0:	a80b883a 	mov	r5,r21
    47e4:	0006f8c0 	call	6f8c <__muldf3>
    47e8:	180b883a 	mov	r5,r3
    47ec:	1009883a 	mov	r4,r2
    47f0:	00080f40 	call	80f4 <__fixdfsi>
    47f4:	1009883a 	mov	r4,r2
    47f8:	00081740 	call	8174 <__floatsidf>
    47fc:	000d883a 	mov	r6,zero
    4800:	01d05c34 	movhi	r7,16752
    4804:	1009883a 	mov	r4,r2
    4808:	180b883a 	mov	r5,r3
    480c:	102f883a 	mov	r23,r2
    4810:	182d883a 	mov	r22,r3
    4814:	0006f8c0 	call	6f8c <__muldf3>
    4818:	100d883a 	mov	r6,r2
    481c:	180f883a 	mov	r7,r3
    4820:	e009883a 	mov	r4,fp
    4824:	a80b883a 	mov	r5,r21
    4828:	00077f80 	call	77f8 <__subdf3>
    482c:	180b883a 	mov	r5,r3
    4830:	1009883a 	mov	r4,r2
    4834:	00080f40 	call	80f4 <__fixdfsi>
    4838:	a1800017 	ldw	r6,0(r20)
    483c:	a1c00117 	ldw	r7,4(r20)
    4840:	88800015 	stw	r2,0(r17)
    4844:	b809883a 	mov	r4,r23
    4848:	b00b883a 	mov	r5,r22
    484c:	0005bac0 	call	5bac <__adddf3>
    4850:	a53ffe04 	addi	r20,r20,-8
    4854:	1039883a 	mov	fp,r2
    4858:	182b883a 	mov	r21,r3
    485c:	8c400104 	addi	r17,r17,4
    4860:	a4ffdc1e 	bne	r20,r19,47d4 <__alt_exception_stack_pointer+0xf80047d4>
    4864:	d9809017 	ldw	r6,576(sp)
    4868:	a80b883a 	mov	r5,r21
    486c:	e009883a 	mov	r4,fp
    4870:	00058180 	call	5818 <scalbn>
    4874:	000d883a 	mov	r6,zero
    4878:	01cff034 	movhi	r7,16320
    487c:	1009883a 	mov	r4,r2
    4880:	180b883a 	mov	r5,r3
    4884:	1027883a 	mov	r19,r2
    4888:	1823883a 	mov	r17,r3
    488c:	0006f8c0 	call	6f8c <__muldf3>
    4890:	1009883a 	mov	r4,r2
    4894:	180b883a 	mov	r5,r3
    4898:	000562c0 	call	562c <floor>
    489c:	000d883a 	mov	r6,zero
    48a0:	01d00834 	movhi	r7,16416
    48a4:	1009883a 	mov	r4,r2
    48a8:	180b883a 	mov	r5,r3
    48ac:	0006f8c0 	call	6f8c <__muldf3>
    48b0:	100d883a 	mov	r6,r2
    48b4:	180f883a 	mov	r7,r3
    48b8:	9809883a 	mov	r4,r19
    48bc:	880b883a 	mov	r5,r17
    48c0:	00077f80 	call	77f8 <__subdf3>
    48c4:	180b883a 	mov	r5,r3
    48c8:	1009883a 	mov	r4,r2
    48cc:	1827883a 	mov	r19,r3
    48d0:	1029883a 	mov	r20,r2
    48d4:	00080f40 	call	80f4 <__fixdfsi>
    48d8:	1009883a 	mov	r4,r2
